

Microchip MPLAB XC8 Assembler V2.40 build 20220703182018 
                                                                                               Mon Aug 15 22:01:41 2022

Microchip MPLAB XC8 C Compiler v2.40 (Free license) build 20220703182018 Og1 
     1                           	processor	16F1778
     2                           	pagewidth 120
     3                           	opt	flic
     4                           	psect	nvCOMMON,global,class=COMMON,space=1,delta=1,noexec
     5                           	psect	cinit,global,class=CODE,merge=1,delta=2
     6                           	psect	bssCOMMON,global,class=COMMON,space=1,delta=1,noexec
     7                           	psect	cstackCOMMON,global,class=COMMON,space=1,delta=1,noexec
     8                           	psect	cstackBANK0,global,class=BANK0,space=1,delta=1,noexec
     9                           	psect	maintext,global,class=CODE,merge=1,split=1,delta=2
    10                           	psect	text1,local,class=CODE,merge=1,delta=2
    11                           	psect	text2,local,class=CODE,merge=1,delta=2
    12                           	psect	text3,local,class=CODE,merge=1,delta=2
    13                           	psect	text4,local,class=CODE,merge=1,delta=2
    14                           	psect	text5,local,class=CODE,merge=1,delta=2
    15                           	psect	text6,local,class=CODE,merge=1,delta=2
    16                           	psect	text7,local,class=CODE,merge=1,delta=2
    17                           	psect	text8,local,class=CODE,merge=1,delta=2
    18                           	psect	intentry,global,class=CODE,delta=2
    19                           	psect	text10,local,class=CODE,merge=1,delta=2
    20                           	psect	text11,local,class=CODE,merge=1,delta=2
    21                           	psect	text12,local,class=CODE,merge=1,delta=2
    22                           	psect	text13,local,class=CODE,merge=1,delta=2
    23                           	psect	text14,local,class=CODE,merge=1,delta=2
    24                           	psect	idloc,global,abs,ovrld,class=IDLOC,space=5,delta=2,noexec
    25                           	psect	config,global,abs,ovrld,class=CONFIG,space=4,delta=2,noexec
    26                           	dabs	1,0x7E,2
    27     0000                     
    28                           ; Version 2.40
    29                           ; Generated 17/11/2021 GMT
    30                           ; 
    31                           ; Copyright © 2021, Microchip Technology Inc. and its subsidiaries ("Microchip")
    32                           ; All rights reserved.
    33                           ; 
    34                           ; This software is developed by Microchip Technology Inc. and its subsidiaries ("Microch
      +                          ip").
    35                           ; 
    36                           ; Redistribution and use in source and binary forms, with or without modification, are
    37                           ; permitted provided that the following conditions are met:
    38                           ; 
    39                           ;     1. Redistributions of source code must retain the above copyright notice, this lis
      +                          t of
    40                           ;        conditions and the following disclaimer.
    41                           ; 
    42                           ;     2. Redistributions in binary form must reproduce the above copyright notice, this 
      +                          list
    43                           ;        of conditions and the following disclaimer in the documentation and/or other
    44                           ;        materials provided with the distribution. Publication is not required when
    45                           ;        this file is used in an embedded application.
    46                           ; 
    47                           ;     3. Microchip's name may not be used to endorse or promote products derived from th
      +                          is
    48                           ;        software without specific prior written permission.
    49                           ; 
    50                           ; THIS SOFTWARE IS PROVIDED BY MICROCHIP "AS IS" AND ANY EXPRESS OR IMPLIED WARRANTIES,
    51                           ; INCLUDING, BUT NOT LIMITED TO, THE IMPLIED WARRANTIES OF MERCHANTABILITY AND FITNESS F
      +                          OR
    52                           ; PURPOSE ARE DISCLAIMED.  IN NO EVENT SHALL MICROCHIP BE LIABLE FOR ANY DIRECT, INDIREC
      +                          T,
    53                           ; INCIDENTAL, SPECIAL, EXEMPLARY, OR CONSEQUENTIAL DAMAGES (INCLUDING BUT NOT LIMITED TO
    54                           ; PROCUREMENT OF SUBSTITUTE GOODS OR SERVICES; LOSS OF USE, DATA OR PROFITS; OR BUSINESS
    55                           ; INTERRUPTION) HOWSOEVER CAUSED AND ON ANY THEORY OF LIABILITY, WHETHER IN CONTRACT, ST
      +                          RICT
    56                           ; LIABILITY, OR TORT (INCLUDING NEGLIGENCE OR OTHERWISE) ARISING IN ANY WAY OUT OF THE U
      +                          SE OF
    57                           ; THIS SOFTWARE, EVEN IF ADVISED OF THE POSSIBILITY OF SUCH DAMAGE.
    58                           ; 
    59                           ; 
    60                           ; Code-generator required, PIC16F1778 Definitions
    61                           ; 
    62                           ; SFR Addresses
    63     0000                     	;# 
    64     0001                     	;# 
    65     0002                     	;# 
    66     0003                     	;# 
    67     0004                     	;# 
    68     0005                     	;# 
    69     0006                     	;# 
    70     0007                     	;# 
    71     0008                     	;# 
    72     0009                     	;# 
    73     000A                     	;# 
    74     000B                     	;# 
    75     000C                     	;# 
    76     000D                     	;# 
    77     000E                     	;# 
    78     0010                     	;# 
    79     0011                     	;# 
    80     0012                     	;# 
    81     0013                     	;# 
    82     0014                     	;# 
    83     0015                     	;# 
    84     0016                     	;# 
    85     0017                     	;# 
    86     0018                     	;# 
    87     0018                     	;# 
    88     0019                     	;# 
    89     001A                     	;# 
    90     001B                     	;# 
    91     001C                     	;# 
    92     001C                     	;# 
    93     001D                     	;# 
    94     001E                     	;# 
    95     001F                     	;# 
    96     008C                     	;# 
    97     008D                     	;# 
    98     008E                     	;# 
    99     0090                     	;# 
   100     0091                     	;# 
   101     0092                     	;# 
   102     0093                     	;# 
   103     0094                     	;# 
   104     0095                     	;# 
   105     0096                     	;# 
   106     0097                     	;# 
   107     0098                     	;# 
   108     0099                     	;# 
   109     009A                     	;# 
   110     009B                     	;# 
   111     009C                     	;# 
   112     009D                     	;# 
   113     009E                     	;# 
   114     009F                     	;# 
   115     010C                     	;# 
   116     010D                     	;# 
   117     010E                     	;# 
   118     0111                     	;# 
   119     0112                     	;# 
   120     0113                     	;# 
   121     0114                     	;# 
   122     0115                     	;# 
   123     0116                     	;# 
   124     0117                     	;# 
   125     0118                     	;# 
   126     0119                     	;# 
   127     011A                     	;# 
   128     011B                     	;# 
   129     011C                     	;# 
   130     011D                     	;# 
   131     018C                     	;# 
   132     018D                     	;# 
   133     018E                     	;# 
   134     0191                     	;# 
   135     0191                     	;# 
   136     0192                     	;# 
   137     0193                     	;# 
   138     0193                     	;# 
   139     0194                     	;# 
   140     0195                     	;# 
   141     0196                     	;# 
   142     0197                     	;# 
   143     0199                     	;# 
   144     0199                     	;# 
   145     0199                     	;# 
   146     019A                     	;# 
   147     019A                     	;# 
   148     019A                     	;# 
   149     019B                     	;# 
   150     019B                     	;# 
   151     019B                     	;# 
   152     019B                     	;# 
   153     019B                     	;# 
   154     019C                     	;# 
   155     019C                     	;# 
   156     019C                     	;# 
   157     019D                     	;# 
   158     019D                     	;# 
   159     019D                     	;# 
   160     019E                     	;# 
   161     019E                     	;# 
   162     019E                     	;# 
   163     019F                     	;# 
   164     019F                     	;# 
   165     019F                     	;# 
   166     019F                     	;# 
   167     019F                     	;# 
   168     020C                     	;# 
   169     020D                     	;# 
   170     020E                     	;# 
   171     0210                     	;# 
   172     0211                     	;# 
   173     0211                     	;# 
   174     0212                     	;# 
   175     0212                     	;# 
   176     0213                     	;# 
   177     0213                     	;# 
   178     0214                     	;# 
   179     0214                     	;# 
   180     0215                     	;# 
   181     0215                     	;# 
   182     0215                     	;# 
   183     0215                     	;# 
   184     0216                     	;# 
   185     0216                     	;# 
   186     0217                     	;# 
   187     0217                     	;# 
   188     021B                     	;# 
   189     021C                     	;# 
   190     021D                     	;# 
   191     021E                     	;# 
   192     021F                     	;# 
   193     028C                     	;# 
   194     028D                     	;# 
   195     028E                     	;# 
   196     0291                     	;# 
   197     0291                     	;# 
   198     0292                     	;# 
   199     0293                     	;# 
   200     0294                     	;# 
   201     0295                     	;# 
   202     0295                     	;# 
   203     0296                     	;# 
   204     0297                     	;# 
   205     0298                     	;# 
   206     0299                     	;# 
   207     0299                     	;# 
   208     029A                     	;# 
   209     029B                     	;# 
   210     029C                     	;# 
   211     029E                     	;# 
   212     029F                     	;# 
   213     030C                     	;# 
   214     030D                     	;# 
   215     030E                     	;# 
   216     0315                     	;# 
   217     0316                     	;# 
   218     0317                     	;# 
   219     0318                     	;# 
   220     0319                     	;# 
   221     031B                     	;# 
   222     031C                     	;# 
   223     031D                     	;# 
   224     031E                     	;# 
   225     031F                     	;# 
   226     038C                     	;# 
   227     038D                     	;# 
   228     038E                     	;# 
   229     0390                     	;# 
   230     0391                     	;# 
   231     0392                     	;# 
   232     0393                     	;# 
   233     0394                     	;# 
   234     0395                     	;# 
   235     0396                     	;# 
   236     0397                     	;# 
   237     0398                     	;# 
   238     0399                     	;# 
   239     039D                     	;# 
   240     039E                     	;# 
   241     039F                     	;# 
   242     040D                     	;# 
   243     040F                     	;# 
   244     040F                     	;# 
   245     0410                     	;# 
   246     0411                     	;# 
   247     0412                     	;# 
   248     0413                     	;# 
   249     0413                     	;# 
   250     0414                     	;# 
   251     0414                     	;# 
   252     0415                     	;# 
   253     0416                     	;# 
   254     0417                     	;# 
   255     0418                     	;# 
   256     041A                     	;# 
   257     041A                     	;# 
   258     041B                     	;# 
   259     041B                     	;# 
   260     041C                     	;# 
   261     041D                     	;# 
   262     041E                     	;# 
   263     041F                     	;# 
   264     048E                     	;# 
   265     048E                     	;# 
   266     048F                     	;# 
   267     0490                     	;# 
   268     0491                     	;# 
   269     0492                     	;# 
   270     0493                     	;# 
   271     0493                     	;# 
   272     0494                     	;# 
   273     0494                     	;# 
   274     0495                     	;# 
   275     0496                     	;# 
   276     0497                     	;# 
   277     0498                     	;# 
   278     049A                     	;# 
   279     049A                     	;# 
   280     049B                     	;# 
   281     049B                     	;# 
   282     049C                     	;# 
   283     049D                     	;# 
   284     049E                     	;# 
   285     049F                     	;# 
   286     050F                     	;# 
   287     0510                     	;# 
   288     0511                     	;# 
   289     0512                     	;# 
   290     0513                     	;# 
   291     0514                     	;# 
   292     0515                     	;# 
   293     0516                     	;# 
   294     0517                     	;# 
   295     0518                     	;# 
   296     0519                     	;# 
   297     051A                     	;# 
   298     058D                     	;# 
   299     058E                     	;# 
   300     058F                     	;# 
   301     058F                     	;# 
   302     058F                     	;# 
   303     0590                     	;# 
   304     0590                     	;# 
   305     0591                     	;# 
   306     0592                     	;# 
   307     0592                     	;# 
   308     0592                     	;# 
   309     0593                     	;# 
   310     0593                     	;# 
   311     0594                     	;# 
   312     0595                     	;# 
   313     0595                     	;# 
   314     0596                     	;# 
   315     0597                     	;# 
   316     0597                     	;# 
   317     0598                     	;# 
   318     0599                     	;# 
   319     0599                     	;# 
   320     0599                     	;# 
   321     059A                     	;# 
   322     059A                     	;# 
   323     059E                     	;# 
   324     059F                     	;# 
   325     059F                     	;# 
   326     0614                     	;# 
   327     0614                     	;# 
   328     0615                     	;# 
   329     0616                     	;# 
   330     0617                     	;# 
   331     0617                     	;# 
   332     0618                     	;# 
   333     0619                     	;# 
   334     061A                     	;# 
   335     061A                     	;# 
   336     061B                     	;# 
   337     061C                     	;# 
   338     068D                     	;# 
   339     068E                     	;# 
   340     068F                     	;# 
   341     0690                     	;# 
   342     0691                     	;# 
   343     0692                     	;# 
   344     0693                     	;# 
   345     0694                     	;# 
   346     0695                     	;# 
   347     0696                     	;# 
   348     0697                     	;# 
   349     0698                     	;# 
   350     0699                     	;# 
   351     069A                     	;# 
   352     069B                     	;# 
   353     069C                     	;# 
   354     069D                     	;# 
   355     069E                     	;# 
   356     069F                     	;# 
   357     070D                     	;# 
   358     070E                     	;# 
   359     070F                     	;# 
   360     0710                     	;# 
   361     0711                     	;# 
   362     0712                     	;# 
   363     0713                     	;# 
   364     0714                     	;# 
   365     0715                     	;# 
   366     0716                     	;# 
   367     0717                     	;# 
   368     0718                     	;# 
   369     0719                     	;# 
   370     071A                     	;# 
   371     071B                     	;# 
   372     071C                     	;# 
   373     071D                     	;# 
   374     071E                     	;# 
   375     071F                     	;# 
   376     078E                     	;# 
   377     078F                     	;# 
   378     0790                     	;# 
   379     0791                     	;# 
   380     0792                     	;# 
   381     0793                     	;# 
   382     0794                     	;# 
   383     0795                     	;# 
   384     0796                     	;# 
   385     0797                     	;# 
   386     0798                     	;# 
   387     0799                     	;# 
   388     079A                     	;# 
   389     079B                     	;# 
   390     079C                     	;# 
   391     079D                     	;# 
   392     079E                     	;# 
   393     079F                     	;# 
   394     080D                     	;# 
   395     080E                     	;# 
   396     080F                     	;# 
   397     0810                     	;# 
   398     0811                     	;# 
   399     0812                     	;# 
   400     0813                     	;# 
   401     0814                     	;# 
   402     0815                     	;# 
   403     0816                     	;# 
   404     0817                     	;# 
   405     0818                     	;# 
   406     0819                     	;# 
   407     081A                     	;# 
   408     081B                     	;# 
   409     081C                     	;# 
   410     081D                     	;# 
   411     081E                     	;# 
   412     081F                     	;# 
   413     090C                     	;# 
   414     090D                     	;# 
   415     090E                     	;# 
   416     090F                     	;# 
   417     0910                     	;# 
   418     0911                     	;# 
   419     0912                     	;# 
   420     0913                     	;# 
   421     0914                     	;# 
   422     0915                     	;# 
   423     0916                     	;# 
   424     0917                     	;# 
   425     0D8E                     	;# 
   426     0D8F                     	;# 
   427     0D90                     	;# 
   428     0D91                     	;# 
   429     0D91                     	;# 
   430     0D92                     	;# 
   431     0D93                     	;# 
   432     0D93                     	;# 
   433     0D94                     	;# 
   434     0D95                     	;# 
   435     0D95                     	;# 
   436     0D96                     	;# 
   437     0D97                     	;# 
   438     0D97                     	;# 
   439     0D98                     	;# 
   440     0D99                     	;# 
   441     0D99                     	;# 
   442     0D9A                     	;# 
   443     0D9B                     	;# 
   444     0D9C                     	;# 
   445     0D9C                     	;# 
   446     0D9D                     	;# 
   447     0D9D                     	;# 
   448     0D9E                     	;# 
   449     0D9F                     	;# 
   450     0DA0                     	;# 
   451     0DA1                     	;# 
   452     0DA1                     	;# 
   453     0DA2                     	;# 
   454     0DA3                     	;# 
   455     0DA3                     	;# 
   456     0DA4                     	;# 
   457     0DA5                     	;# 
   458     0DA5                     	;# 
   459     0DA6                     	;# 
   460     0DA7                     	;# 
   461     0DA7                     	;# 
   462     0DA8                     	;# 
   463     0DA9                     	;# 
   464     0DA9                     	;# 
   465     0DAA                     	;# 
   466     0DAB                     	;# 
   467     0DAC                     	;# 
   468     0DAC                     	;# 
   469     0DAD                     	;# 
   470     0DAD                     	;# 
   471     0DAE                     	;# 
   472     0DAF                     	;# 
   473     0DB0                     	;# 
   474     0DB1                     	;# 
   475     0DB1                     	;# 
   476     0DB2                     	;# 
   477     0DB3                     	;# 
   478     0DB3                     	;# 
   479     0DB4                     	;# 
   480     0DB5                     	;# 
   481     0DB5                     	;# 
   482     0DB6                     	;# 
   483     0DB7                     	;# 
   484     0DB7                     	;# 
   485     0DB8                     	;# 
   486     0DB9                     	;# 
   487     0DB9                     	;# 
   488     0DBA                     	;# 
   489     0DBB                     	;# 
   490     0DBC                     	;# 
   491     0DBC                     	;# 
   492     0DBD                     	;# 
   493     0DBD                     	;# 
   494     0DBE                     	;# 
   495     0DBF                     	;# 
   496     0DC0                     	;# 
   497     0E0C                     	;# 
   498     0E0D                     	;# 
   499     0E0E                     	;# 
   500     0E0F                     	;# 
   501     0E10                     	;# 
   502     0E11                     	;# 
   503     0E12                     	;# 
   504     0E13                     	;# 
   505     0E14                     	;# 
   506     0E15                     	;# 
   507     0E15                     	;# 
   508     0E15                     	;# 
   509     0E16                     	;# 
   510     0E16                     	;# 
   511     0E16                     	;# 
   512     0E17                     	;# 
   513     0E17                     	;# 
   514     0E17                     	;# 
   515     0E18                     	;# 
   516     0E18                     	;# 
   517     0E18                     	;# 
   518     0E19                     	;# 
   519     0E1A                     	;# 
   520     0E1B                     	;# 
   521     0E1D                     	;# 
   522     0E1E                     	;# 
   523     0E1F                     	;# 
   524     0E21                     	;# 
   525     0E22                     	;# 
   526     0E23                     	;# 
   527     0E24                     	;# 
   528     0E25                     	;# 
   529     0E26                     	;# 
   530     0E27                     	;# 
   531     0E28                     	;# 
   532     0E29                     	;# 
   533     0E2D                     	;# 
   534     0E2E                     	;# 
   535     0E2F                     	;# 
   536     0E30                     	;# 
   537     0E31                     	;# 
   538     0E32                     	;# 
   539     0E35                     	;# 
   540     0E36                     	;# 
   541     0E37                     	;# 
   542     0E38                     	;# 
   543     0E39                     	;# 
   544     0E3A                     	;# 
   545     0E3B                     	;# 
   546     0E3C                     	;# 
   547     0E3D                     	;# 
   548     0E3E                     	;# 
   549     0E90                     	;# 
   550     0E91                     	;# 
   551     0E92                     	;# 
   552     0E93                     	;# 
   553     0E94                     	;# 
   554     0E95                     	;# 
   555     0E96                     	;# 
   556     0E97                     	;# 
   557     0E98                     	;# 
   558     0E99                     	;# 
   559     0E9A                     	;# 
   560     0E9B                     	;# 
   561     0E9C                     	;# 
   562     0E9D                     	;# 
   563     0E9E                     	;# 
   564     0E9F                     	;# 
   565     0EA0                     	;# 
   566     0EA1                     	;# 
   567     0EA2                     	;# 
   568     0EA3                     	;# 
   569     0EA4                     	;# 
   570     0EA5                     	;# 
   571     0EA6                     	;# 
   572     0EA7                     	;# 
   573     0F0F                     	;# 
   574     0F10                     	;# 
   575     0F11                     	;# 
   576     0F12                     	;# 
   577     0F13                     	;# 
   578     0F14                     	;# 
   579     0F15                     	;# 
   580     0F16                     	;# 
   581     0F17                     	;# 
   582     0F18                     	;# 
   583     0F19                     	;# 
   584     0F1A                     	;# 
   585     0F1B                     	;# 
   586     0F1C                     	;# 
   587     0F1D                     	;# 
   588     0F1E                     	;# 
   589     0F1F                     	;# 
   590     0F20                     	;# 
   591     0F21                     	;# 
   592     0F22                     	;# 
   593     0F23                     	;# 
   594     0F24                     	;# 
   595     0F25                     	;# 
   596     0F26                     	;# 
   597     0F27                     	;# 
   598     0F28                     	;# 
   599     0F29                     	;# 
   600     0F2A                     	;# 
   601     0F2B                     	;# 
   602     0F2C                     	;# 
   603     0F2D                     	;# 
   604     0F2E                     	;# 
   605     0F2F                     	;# 
   606     0F30                     	;# 
   607     0F31                     	;# 
   608     0F32                     	;# 
   609     0F33                     	;# 
   610     0F34                     	;# 
   611     0F35                     	;# 
   612     0F36                     	;# 
   613     0F37                     	;# 
   614     0FE4                     	;# 
   615     0FE5                     	;# 
   616     0FE6                     	;# 
   617     0FE7                     	;# 
   618     0FE8                     	;# 
   619     0FE9                     	;# 
   620     0FEA                     	;# 
   621     0FEB                     	;# 
   622     0FED                     	;# 
   623     0FEE                     	;# 
   624     0FEF                     	;# 
   625     0000                     	;# 
   626     0001                     	;# 
   627     0002                     	;# 
   628     0003                     	;# 
   629     0004                     	;# 
   630     0005                     	;# 
   631     0006                     	;# 
   632     0007                     	;# 
   633     0008                     	;# 
   634     0009                     	;# 
   635     000A                     	;# 
   636     000B                     	;# 
   637     000C                     	;# 
   638     000D                     	;# 
   639     000E                     	;# 
   640     0010                     	;# 
   641     0011                     	;# 
   642     0012                     	;# 
   643     0013                     	;# 
   644     0014                     	;# 
   645     0015                     	;# 
   646     0016                     	;# 
   647     0017                     	;# 
   648     0018                     	;# 
   649     0018                     	;# 
   650     0019                     	;# 
   651     001A                     	;# 
   652     001B                     	;# 
   653     001C                     	;# 
   654     001C                     	;# 
   655     001D                     	;# 
   656     001E                     	;# 
   657     001F                     	;# 
   658     008C                     	;# 
   659     008D                     	;# 
   660     008E                     	;# 
   661     0090                     	;# 
   662     0091                     	;# 
   663     0092                     	;# 
   664     0093                     	;# 
   665     0094                     	;# 
   666     0095                     	;# 
   667     0096                     	;# 
   668     0097                     	;# 
   669     0098                     	;# 
   670     0099                     	;# 
   671     009A                     	;# 
   672     009B                     	;# 
   673     009C                     	;# 
   674     009D                     	;# 
   675     009E                     	;# 
   676     009F                     	;# 
   677     010C                     	;# 
   678     010D                     	;# 
   679     010E                     	;# 
   680     0111                     	;# 
   681     0112                     	;# 
   682     0113                     	;# 
   683     0114                     	;# 
   684     0115                     	;# 
   685     0116                     	;# 
   686     0117                     	;# 
   687     0118                     	;# 
   688     0119                     	;# 
   689     011A                     	;# 
   690     011B                     	;# 
   691     011C                     	;# 
   692     011D                     	;# 
   693     018C                     	;# 
   694     018D                     	;# 
   695     018E                     	;# 
   696     0191                     	;# 
   697     0191                     	;# 
   698     0192                     	;# 
   699     0193                     	;# 
   700     0193                     	;# 
   701     0194                     	;# 
   702     0195                     	;# 
   703     0196                     	;# 
   704     0197                     	;# 
   705     0199                     	;# 
   706     0199                     	;# 
   707     0199                     	;# 
   708     019A                     	;# 
   709     019A                     	;# 
   710     019A                     	;# 
   711     019B                     	;# 
   712     019B                     	;# 
   713     019B                     	;# 
   714     019B                     	;# 
   715     019B                     	;# 
   716     019C                     	;# 
   717     019C                     	;# 
   718     019C                     	;# 
   719     019D                     	;# 
   720     019D                     	;# 
   721     019D                     	;# 
   722     019E                     	;# 
   723     019E                     	;# 
   724     019E                     	;# 
   725     019F                     	;# 
   726     019F                     	;# 
   727     019F                     	;# 
   728     019F                     	;# 
   729     019F                     	;# 
   730     020C                     	;# 
   731     020D                     	;# 
   732     020E                     	;# 
   733     0210                     	;# 
   734     0211                     	;# 
   735     0211                     	;# 
   736     0212                     	;# 
   737     0212                     	;# 
   738     0213                     	;# 
   739     0213                     	;# 
   740     0214                     	;# 
   741     0214                     	;# 
   742     0215                     	;# 
   743     0215                     	;# 
   744     0215                     	;# 
   745     0215                     	;# 
   746     0216                     	;# 
   747     0216                     	;# 
   748     0217                     	;# 
   749     0217                     	;# 
   750     021B                     	;# 
   751     021C                     	;# 
   752     021D                     	;# 
   753     021E                     	;# 
   754     021F                     	;# 
   755     028C                     	;# 
   756     028D                     	;# 
   757     028E                     	;# 
   758     0291                     	;# 
   759     0291                     	;# 
   760     0292                     	;# 
   761     0293                     	;# 
   762     0294                     	;# 
   763     0295                     	;# 
   764     0295                     	;# 
   765     0296                     	;# 
   766     0297                     	;# 
   767     0298                     	;# 
   768     0299                     	;# 
   769     0299                     	;# 
   770     029A                     	;# 
   771     029B                     	;# 
   772     029C                     	;# 
   773     029E                     	;# 
   774     029F                     	;# 
   775     030C                     	;# 
   776     030D                     	;# 
   777     030E                     	;# 
   778     0315                     	;# 
   779     0316                     	;# 
   780     0317                     	;# 
   781     0318                     	;# 
   782     0319                     	;# 
   783     031B                     	;# 
   784     031C                     	;# 
   785     031D                     	;# 
   786     031E                     	;# 
   787     031F                     	;# 
   788     038C                     	;# 
   789     038D                     	;# 
   790     038E                     	;# 
   791     0390                     	;# 
   792     0391                     	;# 
   793     0392                     	;# 
   794     0393                     	;# 
   795     0394                     	;# 
   796     0395                     	;# 
   797     0396                     	;# 
   798     0397                     	;# 
   799     0398                     	;# 
   800     0399                     	;# 
   801     039D                     	;# 
   802     039E                     	;# 
   803     039F                     	;# 
   804     040D                     	;# 
   805     040F                     	;# 
   806     040F                     	;# 
   807     0410                     	;# 
   808     0411                     	;# 
   809     0412                     	;# 
   810     0413                     	;# 
   811     0413                     	;# 
   812     0414                     	;# 
   813     0414                     	;# 
   814     0415                     	;# 
   815     0416                     	;# 
   816     0417                     	;# 
   817     0418                     	;# 
   818     041A                     	;# 
   819     041A                     	;# 
   820     041B                     	;# 
   821     041B                     	;# 
   822     041C                     	;# 
   823     041D                     	;# 
   824     041E                     	;# 
   825     041F                     	;# 
   826     048E                     	;# 
   827     048E                     	;# 
   828     048F                     	;# 
   829     0490                     	;# 
   830     0491                     	;# 
   831     0492                     	;# 
   832     0493                     	;# 
   833     0493                     	;# 
   834     0494                     	;# 
   835     0494                     	;# 
   836     0495                     	;# 
   837     0496                     	;# 
   838     0497                     	;# 
   839     0498                     	;# 
   840     049A                     	;# 
   841     049A                     	;# 
   842     049B                     	;# 
   843     049B                     	;# 
   844     049C                     	;# 
   845     049D                     	;# 
   846     049E                     	;# 
   847     049F                     	;# 
   848     050F                     	;# 
   849     0510                     	;# 
   850     0511                     	;# 
   851     0512                     	;# 
   852     0513                     	;# 
   853     0514                     	;# 
   854     0515                     	;# 
   855     0516                     	;# 
   856     0517                     	;# 
   857     0518                     	;# 
   858     0519                     	;# 
   859     051A                     	;# 
   860     058D                     	;# 
   861     058E                     	;# 
   862     058F                     	;# 
   863     058F                     	;# 
   864     058F                     	;# 
   865     0590                     	;# 
   866     0590                     	;# 
   867     0591                     	;# 
   868     0592                     	;# 
   869     0592                     	;# 
   870     0592                     	;# 
   871     0593                     	;# 
   872     0593                     	;# 
   873     0594                     	;# 
   874     0595                     	;# 
   875     0595                     	;# 
   876     0596                     	;# 
   877     0597                     	;# 
   878     0597                     	;# 
   879     0598                     	;# 
   880     0599                     	;# 
   881     0599                     	;# 
   882     0599                     	;# 
   883     059A                     	;# 
   884     059A                     	;# 
   885     059E                     	;# 
   886     059F                     	;# 
   887     059F                     	;# 
   888     0614                     	;# 
   889     0614                     	;# 
   890     0615                     	;# 
   891     0616                     	;# 
   892     0617                     	;# 
   893     0617                     	;# 
   894     0618                     	;# 
   895     0619                     	;# 
   896     061A                     	;# 
   897     061A                     	;# 
   898     061B                     	;# 
   899     061C                     	;# 
   900     068D                     	;# 
   901     068E                     	;# 
   902     068F                     	;# 
   903     0690                     	;# 
   904     0691                     	;# 
   905     0692                     	;# 
   906     0693                     	;# 
   907     0694                     	;# 
   908     0695                     	;# 
   909     0696                     	;# 
   910     0697                     	;# 
   911     0698                     	;# 
   912     0699                     	;# 
   913     069A                     	;# 
   914     069B                     	;# 
   915     069C                     	;# 
   916     069D                     	;# 
   917     069E                     	;# 
   918     069F                     	;# 
   919     070D                     	;# 
   920     070E                     	;# 
   921     070F                     	;# 
   922     0710                     	;# 
   923     0711                     	;# 
   924     0712                     	;# 
   925     0713                     	;# 
   926     0714                     	;# 
   927     0715                     	;# 
   928     0716                     	;# 
   929     0717                     	;# 
   930     0718                     	;# 
   931     0719                     	;# 
   932     071A                     	;# 
   933     071B                     	;# 
   934     071C                     	;# 
   935     071D                     	;# 
   936     071E                     	;# 
   937     071F                     	;# 
   938     078E                     	;# 
   939     078F                     	;# 
   940     0790                     	;# 
   941     0791                     	;# 
   942     0792                     	;# 
   943     0793                     	;# 
   944     0794                     	;# 
   945     0795                     	;# 
   946     0796                     	;# 
   947     0797                     	;# 
   948     0798                     	;# 
   949     0799                     	;# 
   950     079A                     	;# 
   951     079B                     	;# 
   952     079C                     	;# 
   953     079D                     	;# 
   954     079E                     	;# 
   955     079F                     	;# 
   956     080D                     	;# 
   957     080E                     	;# 
   958     080F                     	;# 
   959     0810                     	;# 
   960     0811                     	;# 
   961     0812                     	;# 
   962     0813                     	;# 
   963     0814                     	;# 
   964     0815                     	;# 
   965     0816                     	;# 
   966     0817                     	;# 
   967     0818                     	;# 
   968     0819                     	;# 
   969     081A                     	;# 
   970     081B                     	;# 
   971     081C                     	;# 
   972     081D                     	;# 
   973     081E                     	;# 
   974     081F                     	;# 
   975     090C                     	;# 
   976     090D                     	;# 
   977     090E                     	;# 
   978     090F                     	;# 
   979     0910                     	;# 
   980     0911                     	;# 
   981     0912                     	;# 
   982     0913                     	;# 
   983     0914                     	;# 
   984     0915                     	;# 
   985     0916                     	;# 
   986     0917                     	;# 
   987     0D8E                     	;# 
   988     0D8F                     	;# 
   989     0D90                     	;# 
   990     0D91                     	;# 
   991     0D91                     	;# 
   992     0D92                     	;# 
   993     0D93                     	;# 
   994     0D93                     	;# 
   995     0D94                     	;# 
   996     0D95                     	;# 
   997     0D95                     	;# 
   998     0D96                     	;# 
   999     0D97                     	;# 
  1000     0D97                     	;# 
  1001     0D98                     	;# 
  1002     0D99                     	;# 
  1003     0D99                     	;# 
  1004     0D9A                     	;# 
  1005     0D9B                     	;# 
  1006     0D9C                     	;# 
  1007     0D9C                     	;# 
  1008     0D9D                     	;# 
  1009     0D9D                     	;# 
  1010     0D9E                     	;# 
  1011     0D9F                     	;# 
  1012     0DA0                     	;# 
  1013     0DA1                     	;# 
  1014     0DA1                     	;# 
  1015     0DA2                     	;# 
  1016     0DA3                     	;# 
  1017     0DA3                     	;# 
  1018     0DA4                     	;# 
  1019     0DA5                     	;# 
  1020     0DA5                     	;# 
  1021     0DA6                     	;# 
  1022     0DA7                     	;# 
  1023     0DA7                     	;# 
  1024     0DA8                     	;# 
  1025     0DA9                     	;# 
  1026     0DA9                     	;# 
  1027     0DAA                     	;# 
  1028     0DAB                     	;# 
  1029     0DAC                     	;# 
  1030     0DAC                     	;# 
  1031     0DAD                     	;# 
  1032     0DAD                     	;# 
  1033     0DAE                     	;# 
  1034     0DAF                     	;# 
  1035     0DB0                     	;# 
  1036     0DB1                     	;# 
  1037     0DB1                     	;# 
  1038     0DB2                     	;# 
  1039     0DB3                     	;# 
  1040     0DB3                     	;# 
  1041     0DB4                     	;# 
  1042     0DB5                     	;# 
  1043     0DB5                     	;# 
  1044     0DB6                     	;# 
  1045     0DB7                     	;# 
  1046     0DB7                     	;# 
  1047     0DB8                     	;# 
  1048     0DB9                     	;# 
  1049     0DB9                     	;# 
  1050     0DBA                     	;# 
  1051     0DBB                     	;# 
  1052     0DBC                     	;# 
  1053     0DBC                     	;# 
  1054     0DBD                     	;# 
  1055     0DBD                     	;# 
  1056     0DBE                     	;# 
  1057     0DBF                     	;# 
  1058     0DC0                     	;# 
  1059     0E0C                     	;# 
  1060     0E0D                     	;# 
  1061     0E0E                     	;# 
  1062     0E0F                     	;# 
  1063     0E10                     	;# 
  1064     0E11                     	;# 
  1065     0E12                     	;# 
  1066     0E13                     	;# 
  1067     0E14                     	;# 
  1068     0E15                     	;# 
  1069     0E15                     	;# 
  1070     0E15                     	;# 
  1071     0E16                     	;# 
  1072     0E16                     	;# 
  1073     0E16                     	;# 
  1074     0E17                     	;# 
  1075     0E17                     	;# 
  1076     0E17                     	;# 
  1077     0E18                     	;# 
  1078     0E18                     	;# 
  1079     0E18                     	;# 
  1080     0E19                     	;# 
  1081     0E1A                     	;# 
  1082     0E1B                     	;# 
  1083     0E1D                     	;# 
  1084     0E1E                     	;# 
  1085     0E1F                     	;# 
  1086     0E21                     	;# 
  1087     0E22                     	;# 
  1088     0E23                     	;# 
  1089     0E24                     	;# 
  1090     0E25                     	;# 
  1091     0E26                     	;# 
  1092     0E27                     	;# 
  1093     0E28                     	;# 
  1094     0E29                     	;# 
  1095     0E2D                     	;# 
  1096     0E2E                     	;# 
  1097     0E2F                     	;# 
  1098     0E30                     	;# 
  1099     0E31                     	;# 
  1100     0E32                     	;# 
  1101     0E35                     	;# 
  1102     0E36                     	;# 
  1103     0E37                     	;# 
  1104     0E38                     	;# 
  1105     0E39                     	;# 
  1106     0E3A                     	;# 
  1107     0E3B                     	;# 
  1108     0E3C                     	;# 
  1109     0E3D                     	;# 
  1110     0E3E                     	;# 
  1111     0E90                     	;# 
  1112     0E91                     	;# 
  1113     0E92                     	;# 
  1114     0E93                     	;# 
  1115     0E94                     	;# 
  1116     0E95                     	;# 
  1117     0E96                     	;# 
  1118     0E97                     	;# 
  1119     0E98                     	;# 
  1120     0E99                     	;# 
  1121     0E9A                     	;# 
  1122     0E9B                     	;# 
  1123     0E9C                     	;# 
  1124     0E9D                     	;# 
  1125     0E9E                     	;# 
  1126     0E9F                     	;# 
  1127     0EA0                     	;# 
  1128     0EA1                     	;# 
  1129     0EA2                     	;# 
  1130     0EA3                     	;# 
  1131     0EA4                     	;# 
  1132     0EA5                     	;# 
  1133     0EA6                     	;# 
  1134     0EA7                     	;# 
  1135     0F0F                     	;# 
  1136     0F10                     	;# 
  1137     0F11                     	;# 
  1138     0F12                     	;# 
  1139     0F13                     	;# 
  1140     0F14                     	;# 
  1141     0F15                     	;# 
  1142     0F16                     	;# 
  1143     0F17                     	;# 
  1144     0F18                     	;# 
  1145     0F19                     	;# 
  1146     0F1A                     	;# 
  1147     0F1B                     	;# 
  1148     0F1C                     	;# 
  1149     0F1D                     	;# 
  1150     0F1E                     	;# 
  1151     0F1F                     	;# 
  1152     0F20                     	;# 
  1153     0F21                     	;# 
  1154     0F22                     	;# 
  1155     0F23                     	;# 
  1156     0F24                     	;# 
  1157     0F25                     	;# 
  1158     0F26                     	;# 
  1159     0F27                     	;# 
  1160     0F28                     	;# 
  1161     0F29                     	;# 
  1162     0F2A                     	;# 
  1163     0F2B                     	;# 
  1164     0F2C                     	;# 
  1165     0F2D                     	;# 
  1166     0F2E                     	;# 
  1167     0F2F                     	;# 
  1168     0F30                     	;# 
  1169     0F31                     	;# 
  1170     0F32                     	;# 
  1171     0F33                     	;# 
  1172     0F34                     	;# 
  1173     0F35                     	;# 
  1174     0F36                     	;# 
  1175     0F37                     	;# 
  1176     0FE4                     	;# 
  1177     0FE5                     	;# 
  1178     0FE6                     	;# 
  1179     0FE7                     	;# 
  1180     0FE8                     	;# 
  1181     0FE9                     	;# 
  1182     0FEA                     	;# 
  1183     0FEB                     	;# 
  1184     0FED                     	;# 
  1185     0FEE                     	;# 
  1186     0FEF                     	;# 
  1187     0000                     	;# 
  1188     0001                     	;# 
  1189     0002                     	;# 
  1190     0003                     	;# 
  1191     0004                     	;# 
  1192     0005                     	;# 
  1193     0006                     	;# 
  1194     0007                     	;# 
  1195     0008                     	;# 
  1196     0009                     	;# 
  1197     000A                     	;# 
  1198     000B                     	;# 
  1199     000C                     	;# 
  1200     000D                     	;# 
  1201     000E                     	;# 
  1202     0010                     	;# 
  1203     0011                     	;# 
  1204     0012                     	;# 
  1205     0013                     	;# 
  1206     0014                     	;# 
  1207     0015                     	;# 
  1208     0016                     	;# 
  1209     0017                     	;# 
  1210     0018                     	;# 
  1211     0018                     	;# 
  1212     0019                     	;# 
  1213     001A                     	;# 
  1214     001B                     	;# 
  1215     001C                     	;# 
  1216     001C                     	;# 
  1217     001D                     	;# 
  1218     001E                     	;# 
  1219     001F                     	;# 
  1220     008C                     	;# 
  1221     008D                     	;# 
  1222     008E                     	;# 
  1223     0090                     	;# 
  1224     0091                     	;# 
  1225     0092                     	;# 
  1226     0093                     	;# 
  1227     0094                     	;# 
  1228     0095                     	;# 
  1229     0096                     	;# 
  1230     0097                     	;# 
  1231     0098                     	;# 
  1232     0099                     	;# 
  1233     009A                     	;# 
  1234     009B                     	;# 
  1235     009C                     	;# 
  1236     009D                     	;# 
  1237     009E                     	;# 
  1238     009F                     	;# 
  1239     010C                     	;# 
  1240     010D                     	;# 
  1241     010E                     	;# 
  1242     0111                     	;# 
  1243     0112                     	;# 
  1244     0113                     	;# 
  1245     0114                     	;# 
  1246     0115                     	;# 
  1247     0116                     	;# 
  1248     0117                     	;# 
  1249     0118                     	;# 
  1250     0119                     	;# 
  1251     011A                     	;# 
  1252     011B                     	;# 
  1253     011C                     	;# 
  1254     011D                     	;# 
  1255     018C                     	;# 
  1256     018D                     	;# 
  1257     018E                     	;# 
  1258     0191                     	;# 
  1259     0191                     	;# 
  1260     0192                     	;# 
  1261     0193                     	;# 
  1262     0193                     	;# 
  1263     0194                     	;# 
  1264     0195                     	;# 
  1265     0196                     	;# 
  1266     0197                     	;# 
  1267     0199                     	;# 
  1268     0199                     	;# 
  1269     0199                     	;# 
  1270     019A                     	;# 
  1271     019A                     	;# 
  1272     019A                     	;# 
  1273     019B                     	;# 
  1274     019B                     	;# 
  1275     019B                     	;# 
  1276     019B                     	;# 
  1277     019B                     	;# 
  1278     019C                     	;# 
  1279     019C                     	;# 
  1280     019C                     	;# 
  1281     019D                     	;# 
  1282     019D                     	;# 
  1283     019D                     	;# 
  1284     019E                     	;# 
  1285     019E                     	;# 
  1286     019E                     	;# 
  1287     019F                     	;# 
  1288     019F                     	;# 
  1289     019F                     	;# 
  1290     019F                     	;# 
  1291     019F                     	;# 
  1292     020C                     	;# 
  1293     020D                     	;# 
  1294     020E                     	;# 
  1295     0210                     	;# 
  1296     0211                     	;# 
  1297     0211                     	;# 
  1298     0212                     	;# 
  1299     0212                     	;# 
  1300     0213                     	;# 
  1301     0213                     	;# 
  1302     0214                     	;# 
  1303     0214                     	;# 
  1304     0215                     	;# 
  1305     0215                     	;# 
  1306     0215                     	;# 
  1307     0215                     	;# 
  1308     0216                     	;# 
  1309     0216                     	;# 
  1310     0217                     	;# 
  1311     0217                     	;# 
  1312     021B                     	;# 
  1313     021C                     	;# 
  1314     021D                     	;# 
  1315     021E                     	;# 
  1316     021F                     	;# 
  1317     028C                     	;# 
  1318     028D                     	;# 
  1319     028E                     	;# 
  1320     0291                     	;# 
  1321     0291                     	;# 
  1322     0292                     	;# 
  1323     0293                     	;# 
  1324     0294                     	;# 
  1325     0295                     	;# 
  1326     0295                     	;# 
  1327     0296                     	;# 
  1328     0297                     	;# 
  1329     0298                     	;# 
  1330     0299                     	;# 
  1331     0299                     	;# 
  1332     029A                     	;# 
  1333     029B                     	;# 
  1334     029C                     	;# 
  1335     029E                     	;# 
  1336     029F                     	;# 
  1337     030C                     	;# 
  1338     030D                     	;# 
  1339     030E                     	;# 
  1340     0315                     	;# 
  1341     0316                     	;# 
  1342     0317                     	;# 
  1343     0318                     	;# 
  1344     0319                     	;# 
  1345     031B                     	;# 
  1346     031C                     	;# 
  1347     031D                     	;# 
  1348     031E                     	;# 
  1349     031F                     	;# 
  1350     038C                     	;# 
  1351     038D                     	;# 
  1352     038E                     	;# 
  1353     0390                     	;# 
  1354     0391                     	;# 
  1355     0392                     	;# 
  1356     0393                     	;# 
  1357     0394                     	;# 
  1358     0395                     	;# 
  1359     0396                     	;# 
  1360     0397                     	;# 
  1361     0398                     	;# 
  1362     0399                     	;# 
  1363     039D                     	;# 
  1364     039E                     	;# 
  1365     039F                     	;# 
  1366     040D                     	;# 
  1367     040F                     	;# 
  1368     040F                     	;# 
  1369     0410                     	;# 
  1370     0411                     	;# 
  1371     0412                     	;# 
  1372     0413                     	;# 
  1373     0413                     	;# 
  1374     0414                     	;# 
  1375     0414                     	;# 
  1376     0415                     	;# 
  1377     0416                     	;# 
  1378     0417                     	;# 
  1379     0418                     	;# 
  1380     041A                     	;# 
  1381     041A                     	;# 
  1382     041B                     	;# 
  1383     041B                     	;# 
  1384     041C                     	;# 
  1385     041D                     	;# 
  1386     041E                     	;# 
  1387     041F                     	;# 
  1388     048E                     	;# 
  1389     048E                     	;# 
  1390     048F                     	;# 
  1391     0490                     	;# 
  1392     0491                     	;# 
  1393     0492                     	;# 
  1394     0493                     	;# 
  1395     0493                     	;# 
  1396     0494                     	;# 
  1397     0494                     	;# 
  1398     0495                     	;# 
  1399     0496                     	;# 
  1400     0497                     	;# 
  1401     0498                     	;# 
  1402     049A                     	;# 
  1403     049A                     	;# 
  1404     049B                     	;# 
  1405     049B                     	;# 
  1406     049C                     	;# 
  1407     049D                     	;# 
  1408     049E                     	;# 
  1409     049F                     	;# 
  1410     050F                     	;# 
  1411     0510                     	;# 
  1412     0511                     	;# 
  1413     0512                     	;# 
  1414     0513                     	;# 
  1415     0514                     	;# 
  1416     0515                     	;# 
  1417     0516                     	;# 
  1418     0517                     	;# 
  1419     0518                     	;# 
  1420     0519                     	;# 
  1421     051A                     	;# 
  1422     058D                     	;# 
  1423     058E                     	;# 
  1424     058F                     	;# 
  1425     058F                     	;# 
  1426     058F                     	;# 
  1427     0590                     	;# 
  1428     0590                     	;# 
  1429     0591                     	;# 
  1430     0592                     	;# 
  1431     0592                     	;# 
  1432     0592                     	;# 
  1433     0593                     	;# 
  1434     0593                     	;# 
  1435     0594                     	;# 
  1436     0595                     	;# 
  1437     0595                     	;# 
  1438     0596                     	;# 
  1439     0597                     	;# 
  1440     0597                     	;# 
  1441     0598                     	;# 
  1442     0599                     	;# 
  1443     0599                     	;# 
  1444     0599                     	;# 
  1445     059A                     	;# 
  1446     059A                     	;# 
  1447     059E                     	;# 
  1448     059F                     	;# 
  1449     059F                     	;# 
  1450     0614                     	;# 
  1451     0614                     	;# 
  1452     0615                     	;# 
  1453     0616                     	;# 
  1454     0617                     	;# 
  1455     0617                     	;# 
  1456     0618                     	;# 
  1457     0619                     	;# 
  1458     061A                     	;# 
  1459     061A                     	;# 
  1460     061B                     	;# 
  1461     061C                     	;# 
  1462     068D                     	;# 
  1463     068E                     	;# 
  1464     068F                     	;# 
  1465     0690                     	;# 
  1466     0691                     	;# 
  1467     0692                     	;# 
  1468     0693                     	;# 
  1469     0694                     	;# 
  1470     0695                     	;# 
  1471     0696                     	;# 
  1472     0697                     	;# 
  1473     0698                     	;# 
  1474     0699                     	;# 
  1475     069A                     	;# 
  1476     069B                     	;# 
  1477     069C                     	;# 
  1478     069D                     	;# 
  1479     069E                     	;# 
  1480     069F                     	;# 
  1481     070D                     	;# 
  1482     070E                     	;# 
  1483     070F                     	;# 
  1484     0710                     	;# 
  1485     0711                     	;# 
  1486     0712                     	;# 
  1487     0713                     	;# 
  1488     0714                     	;# 
  1489     0715                     	;# 
  1490     0716                     	;# 
  1491     0717                     	;# 
  1492     0718                     	;# 
  1493     0719                     	;# 
  1494     071A                     	;# 
  1495     071B                     	;# 
  1496     071C                     	;# 
  1497     071D                     	;# 
  1498     071E                     	;# 
  1499     071F                     	;# 
  1500     078E                     	;# 
  1501     078F                     	;# 
  1502     0790                     	;# 
  1503     0791                     	;# 
  1504     0792                     	;# 
  1505     0793                     	;# 
  1506     0794                     	;# 
  1507     0795                     	;# 
  1508     0796                     	;# 
  1509     0797                     	;# 
  1510     0798                     	;# 
  1511     0799                     	;# 
  1512     079A                     	;# 
  1513     079B                     	;# 
  1514     079C                     	;# 
  1515     079D                     	;# 
  1516     079E                     	;# 
  1517     079F                     	;# 
  1518     080D                     	;# 
  1519     080E                     	;# 
  1520     080F                     	;# 
  1521     0810                     	;# 
  1522     0811                     	;# 
  1523     0812                     	;# 
  1524     0813                     	;# 
  1525     0814                     	;# 
  1526     0815                     	;# 
  1527     0816                     	;# 
  1528     0817                     	;# 
  1529     0818                     	;# 
  1530     0819                     	;# 
  1531     081A                     	;# 
  1532     081B                     	;# 
  1533     081C                     	;# 
  1534     081D                     	;# 
  1535     081E                     	;# 
  1536     081F                     	;# 
  1537     090C                     	;# 
  1538     090D                     	;# 
  1539     090E                     	;# 
  1540     090F                     	;# 
  1541     0910                     	;# 
  1542     0911                     	;# 
  1543     0912                     	;# 
  1544     0913                     	;# 
  1545     0914                     	;# 
  1546     0915                     	;# 
  1547     0916                     	;# 
  1548     0917                     	;# 
  1549     0D8E                     	;# 
  1550     0D8F                     	;# 
  1551     0D90                     	;# 
  1552     0D91                     	;# 
  1553     0D91                     	;# 
  1554     0D92                     	;# 
  1555     0D93                     	;# 
  1556     0D93                     	;# 
  1557     0D94                     	;# 
  1558     0D95                     	;# 
  1559     0D95                     	;# 
  1560     0D96                     	;# 
  1561     0D97                     	;# 
  1562     0D97                     	;# 
  1563     0D98                     	;# 
  1564     0D99                     	;# 
  1565     0D99                     	;# 
  1566     0D9A                     	;# 
  1567     0D9B                     	;# 
  1568     0D9C                     	;# 
  1569     0D9C                     	;# 
  1570     0D9D                     	;# 
  1571     0D9D                     	;# 
  1572     0D9E                     	;# 
  1573     0D9F                     	;# 
  1574     0DA0                     	;# 
  1575     0DA1                     	;# 
  1576     0DA1                     	;# 
  1577     0DA2                     	;# 
  1578     0DA3                     	;# 
  1579     0DA3                     	;# 
  1580     0DA4                     	;# 
  1581     0DA5                     	;# 
  1582     0DA5                     	;# 
  1583     0DA6                     	;# 
  1584     0DA7                     	;# 
  1585     0DA7                     	;# 
  1586     0DA8                     	;# 
  1587     0DA9                     	;# 
  1588     0DA9                     	;# 
  1589     0DAA                     	;# 
  1590     0DAB                     	;# 
  1591     0DAC                     	;# 
  1592     0DAC                     	;# 
  1593     0DAD                     	;# 
  1594     0DAD                     	;# 
  1595     0DAE                     	;# 
  1596     0DAF                     	;# 
  1597     0DB0                     	;# 
  1598     0DB1                     	;# 
  1599     0DB1                     	;# 
  1600     0DB2                     	;# 
  1601     0DB3                     	;# 
  1602     0DB3                     	;# 
  1603     0DB4                     	;# 
  1604     0DB5                     	;# 
  1605     0DB5                     	;# 
  1606     0DB6                     	;# 
  1607     0DB7                     	;# 
  1608     0DB7                     	;# 
  1609     0DB8                     	;# 
  1610     0DB9                     	;# 
  1611     0DB9                     	;# 
  1612     0DBA                     	;# 
  1613     0DBB                     	;# 
  1614     0DBC                     	;# 
  1615     0DBC                     	;# 
  1616     0DBD                     	;# 
  1617     0DBD                     	;# 
  1618     0DBE                     	;# 
  1619     0DBF                     	;# 
  1620     0DC0                     	;# 
  1621     0E0C                     	;# 
  1622     0E0D                     	;# 
  1623     0E0E                     	;# 
  1624     0E0F                     	;# 
  1625     0E10                     	;# 
  1626     0E11                     	;# 
  1627     0E12                     	;# 
  1628     0E13                     	;# 
  1629     0E14                     	;# 
  1630     0E15                     	;# 
  1631     0E15                     	;# 
  1632     0E15                     	;# 
  1633     0E16                     	;# 
  1634     0E16                     	;# 
  1635     0E16                     	;# 
  1636     0E17                     	;# 
  1637     0E17                     	;# 
  1638     0E17                     	;# 
  1639     0E18                     	;# 
  1640     0E18                     	;# 
  1641     0E18                     	;# 
  1642     0E19                     	;# 
  1643     0E1A                     	;# 
  1644     0E1B                     	;# 
  1645     0E1D                     	;# 
  1646     0E1E                     	;# 
  1647     0E1F                     	;# 
  1648     0E21                     	;# 
  1649     0E22                     	;# 
  1650     0E23                     	;# 
  1651     0E24                     	;# 
  1652     0E25                     	;# 
  1653     0E26                     	;# 
  1654     0E27                     	;# 
  1655     0E28                     	;# 
  1656     0E29                     	;# 
  1657     0E2D                     	;# 
  1658     0E2E                     	;# 
  1659     0E2F                     	;# 
  1660     0E30                     	;# 
  1661     0E31                     	;# 
  1662     0E32                     	;# 
  1663     0E35                     	;# 
  1664     0E36                     	;# 
  1665     0E37                     	;# 
  1666     0E38                     	;# 
  1667     0E39                     	;# 
  1668     0E3A                     	;# 
  1669     0E3B                     	;# 
  1670     0E3C                     	;# 
  1671     0E3D                     	;# 
  1672     0E3E                     	;# 
  1673     0E90                     	;# 
  1674     0E91                     	;# 
  1675     0E92                     	;# 
  1676     0E93                     	;# 
  1677     0E94                     	;# 
  1678     0E95                     	;# 
  1679     0E96                     	;# 
  1680     0E97                     	;# 
  1681     0E98                     	;# 
  1682     0E99                     	;# 
  1683     0E9A                     	;# 
  1684     0E9B                     	;# 
  1685     0E9C                     	;# 
  1686     0E9D                     	;# 
  1687     0E9E                     	;# 
  1688     0E9F                     	;# 
  1689     0EA0                     	;# 
  1690     0EA1                     	;# 
  1691     0EA2                     	;# 
  1692     0EA3                     	;# 
  1693     0EA4                     	;# 
  1694     0EA5                     	;# 
  1695     0EA6                     	;# 
  1696     0EA7                     	;# 
  1697     0F0F                     	;# 
  1698     0F10                     	;# 
  1699     0F11                     	;# 
  1700     0F12                     	;# 
  1701     0F13                     	;# 
  1702     0F14                     	;# 
  1703     0F15                     	;# 
  1704     0F16                     	;# 
  1705     0F17                     	;# 
  1706     0F18                     	;# 
  1707     0F19                     	;# 
  1708     0F1A                     	;# 
  1709     0F1B                     	;# 
  1710     0F1C                     	;# 
  1711     0F1D                     	;# 
  1712     0F1E                     	;# 
  1713     0F1F                     	;# 
  1714     0F20                     	;# 
  1715     0F21                     	;# 
  1716     0F22                     	;# 
  1717     0F23                     	;# 
  1718     0F24                     	;# 
  1719     0F25                     	;# 
  1720     0F26                     	;# 
  1721     0F27                     	;# 
  1722     0F28                     	;# 
  1723     0F29                     	;# 
  1724     0F2A                     	;# 
  1725     0F2B                     	;# 
  1726     0F2C                     	;# 
  1727     0F2D                     	;# 
  1728     0F2E                     	;# 
  1729     0F2F                     	;# 
  1730     0F30                     	;# 
  1731     0F31                     	;# 
  1732     0F32                     	;# 
  1733     0F33                     	;# 
  1734     0F34                     	;# 
  1735     0F35                     	;# 
  1736     0F36                     	;# 
  1737     0F37                     	;# 
  1738     0FE4                     	;# 
  1739     0FE5                     	;# 
  1740     0FE6                     	;# 
  1741     0FE7                     	;# 
  1742     0FE8                     	;# 
  1743     0FE9                     	;# 
  1744     0FEA                     	;# 
  1745     0FEB                     	;# 
  1746     0FED                     	;# 
  1747     0FEE                     	;# 
  1748     0FEF                     	;# 
  1749     0000                     	;# 
  1750     0001                     	;# 
  1751     0002                     	;# 
  1752     0003                     	;# 
  1753     0004                     	;# 
  1754     0005                     	;# 
  1755     0006                     	;# 
  1756     0007                     	;# 
  1757     0008                     	;# 
  1758     0009                     	;# 
  1759     000A                     	;# 
  1760     000B                     	;# 
  1761     000C                     	;# 
  1762     000D                     	;# 
  1763     000E                     	;# 
  1764     0010                     	;# 
  1765     0011                     	;# 
  1766     0012                     	;# 
  1767     0013                     	;# 
  1768     0014                     	;# 
  1769     0015                     	;# 
  1770     0016                     	;# 
  1771     0017                     	;# 
  1772     0018                     	;# 
  1773     0018                     	;# 
  1774     0019                     	;# 
  1775     001A                     	;# 
  1776     001B                     	;# 
  1777     001C                     	;# 
  1778     001C                     	;# 
  1779     001D                     	;# 
  1780     001E                     	;# 
  1781     001F                     	;# 
  1782     008C                     	;# 
  1783     008D                     	;# 
  1784     008E                     	;# 
  1785     0090                     	;# 
  1786     0091                     	;# 
  1787     0092                     	;# 
  1788     0093                     	;# 
  1789     0094                     	;# 
  1790     0095                     	;# 
  1791     0096                     	;# 
  1792     0097                     	;# 
  1793     0098                     	;# 
  1794     0099                     	;# 
  1795     009A                     	;# 
  1796     009B                     	;# 
  1797     009C                     	;# 
  1798     009D                     	;# 
  1799     009E                     	;# 
  1800     009F                     	;# 
  1801     010C                     	;# 
  1802     010D                     	;# 
  1803     010E                     	;# 
  1804     0111                     	;# 
  1805     0112                     	;# 
  1806     0113                     	;# 
  1807     0114                     	;# 
  1808     0115                     	;# 
  1809     0116                     	;# 
  1810     0117                     	;# 
  1811     0118                     	;# 
  1812     0119                     	;# 
  1813     011A                     	;# 
  1814     011B                     	;# 
  1815     011C                     	;# 
  1816     011D                     	;# 
  1817     018C                     	;# 
  1818     018D                     	;# 
  1819     018E                     	;# 
  1820     0191                     	;# 
  1821     0191                     	;# 
  1822     0192                     	;# 
  1823     0193                     	;# 
  1824     0193                     	;# 
  1825     0194                     	;# 
  1826     0195                     	;# 
  1827     0196                     	;# 
  1828     0197                     	;# 
  1829     0199                     	;# 
  1830     0199                     	;# 
  1831     0199                     	;# 
  1832     019A                     	;# 
  1833     019A                     	;# 
  1834     019A                     	;# 
  1835     019B                     	;# 
  1836     019B                     	;# 
  1837     019B                     	;# 
  1838     019B                     	;# 
  1839     019B                     	;# 
  1840     019C                     	;# 
  1841     019C                     	;# 
  1842     019C                     	;# 
  1843     019D                     	;# 
  1844     019D                     	;# 
  1845     019D                     	;# 
  1846     019E                     	;# 
  1847     019E                     	;# 
  1848     019E                     	;# 
  1849     019F                     	;# 
  1850     019F                     	;# 
  1851     019F                     	;# 
  1852     019F                     	;# 
  1853     019F                     	;# 
  1854     020C                     	;# 
  1855     020D                     	;# 
  1856     020E                     	;# 
  1857     0210                     	;# 
  1858     0211                     	;# 
  1859     0211                     	;# 
  1860     0212                     	;# 
  1861     0212                     	;# 
  1862     0213                     	;# 
  1863     0213                     	;# 
  1864     0214                     	;# 
  1865     0214                     	;# 
  1866     0215                     	;# 
  1867     0215                     	;# 
  1868     0215                     	;# 
  1869     0215                     	;# 
  1870     0216                     	;# 
  1871     0216                     	;# 
  1872     0217                     	;# 
  1873     0217                     	;# 
  1874     021B                     	;# 
  1875     021C                     	;# 
  1876     021D                     	;# 
  1877     021E                     	;# 
  1878     021F                     	;# 
  1879     028C                     	;# 
  1880     028D                     	;# 
  1881     028E                     	;# 
  1882     0291                     	;# 
  1883     0291                     	;# 
  1884     0292                     	;# 
  1885     0293                     	;# 
  1886     0294                     	;# 
  1887     0295                     	;# 
  1888     0295                     	;# 
  1889     0296                     	;# 
  1890     0297                     	;# 
  1891     0298                     	;# 
  1892     0299                     	;# 
  1893     0299                     	;# 
  1894     029A                     	;# 
  1895     029B                     	;# 
  1896     029C                     	;# 
  1897     029E                     	;# 
  1898     029F                     	;# 
  1899     030C                     	;# 
  1900     030D                     	;# 
  1901     030E                     	;# 
  1902     0315                     	;# 
  1903     0316                     	;# 
  1904     0317                     	;# 
  1905     0318                     	;# 
  1906     0319                     	;# 
  1907     031B                     	;# 
  1908     031C                     	;# 
  1909     031D                     	;# 
  1910     031E                     	;# 
  1911     031F                     	;# 
  1912     038C                     	;# 
  1913     038D                     	;# 
  1914     038E                     	;# 
  1915     0390                     	;# 
  1916     0391                     	;# 
  1917     0392                     	;# 
  1918     0393                     	;# 
  1919     0394                     	;# 
  1920     0395                     	;# 
  1921     0396                     	;# 
  1922     0397                     	;# 
  1923     0398                     	;# 
  1924     0399                     	;# 
  1925     039D                     	;# 
  1926     039E                     	;# 
  1927     039F                     	;# 
  1928     040D                     	;# 
  1929     040F                     	;# 
  1930     040F                     	;# 
  1931     0410                     	;# 
  1932     0411                     	;# 
  1933     0412                     	;# 
  1934     0413                     	;# 
  1935     0413                     	;# 
  1936     0414                     	;# 
  1937     0414                     	;# 
  1938     0415                     	;# 
  1939     0416                     	;# 
  1940     0417                     	;# 
  1941     0418                     	;# 
  1942     041A                     	;# 
  1943     041A                     	;# 
  1944     041B                     	;# 
  1945     041B                     	;# 
  1946     041C                     	;# 
  1947     041D                     	;# 
  1948     041E                     	;# 
  1949     041F                     	;# 
  1950     048E                     	;# 
  1951     048E                     	;# 
  1952     048F                     	;# 
  1953     0490                     	;# 
  1954     0491                     	;# 
  1955     0492                     	;# 
  1956     0493                     	;# 
  1957     0493                     	;# 
  1958     0494                     	;# 
  1959     0494                     	;# 
  1960     0495                     	;# 
  1961     0496                     	;# 
  1962     0497                     	;# 
  1963     0498                     	;# 
  1964     049A                     	;# 
  1965     049A                     	;# 
  1966     049B                     	;# 
  1967     049B                     	;# 
  1968     049C                     	;# 
  1969     049D                     	;# 
  1970     049E                     	;# 
  1971     049F                     	;# 
  1972     050F                     	;# 
  1973     0510                     	;# 
  1974     0511                     	;# 
  1975     0512                     	;# 
  1976     0513                     	;# 
  1977     0514                     	;# 
  1978     0515                     	;# 
  1979     0516                     	;# 
  1980     0517                     	;# 
  1981     0518                     	;# 
  1982     0519                     	;# 
  1983     051A                     	;# 
  1984     058D                     	;# 
  1985     058E                     	;# 
  1986     058F                     	;# 
  1987     058F                     	;# 
  1988     058F                     	;# 
  1989     0590                     	;# 
  1990     0590                     	;# 
  1991     0591                     	;# 
  1992     0592                     	;# 
  1993     0592                     	;# 
  1994     0592                     	;# 
  1995     0593                     	;# 
  1996     0593                     	;# 
  1997     0594                     	;# 
  1998     0595                     	;# 
  1999     0595                     	;# 
  2000     0596                     	;# 
  2001     0597                     	;# 
  2002     0597                     	;# 
  2003     0598                     	;# 
  2004     0599                     	;# 
  2005     0599                     	;# 
  2006     0599                     	;# 
  2007     059A                     	;# 
  2008     059A                     	;# 
  2009     059E                     	;# 
  2010     059F                     	;# 
  2011     059F                     	;# 
  2012     0614                     	;# 
  2013     0614                     	;# 
  2014     0615                     	;# 
  2015     0616                     	;# 
  2016     0617                     	;# 
  2017     0617                     	;# 
  2018     0618                     	;# 
  2019     0619                     	;# 
  2020     061A                     	;# 
  2021     061A                     	;# 
  2022     061B                     	;# 
  2023     061C                     	;# 
  2024     068D                     	;# 
  2025     068E                     	;# 
  2026     068F                     	;# 
  2027     0690                     	;# 
  2028     0691                     	;# 
  2029     0692                     	;# 
  2030     0693                     	;# 
  2031     0694                     	;# 
  2032     0695                     	;# 
  2033     0696                     	;# 
  2034     0697                     	;# 
  2035     0698                     	;# 
  2036     0699                     	;# 
  2037     069A                     	;# 
  2038     069B                     	;# 
  2039     069C                     	;# 
  2040     069D                     	;# 
  2041     069E                     	;# 
  2042     069F                     	;# 
  2043     070D                     	;# 
  2044     070E                     	;# 
  2045     070F                     	;# 
  2046     0710                     	;# 
  2047     0711                     	;# 
  2048     0712                     	;# 
  2049     0713                     	;# 
  2050     0714                     	;# 
  2051     0715                     	;# 
  2052     0716                     	;# 
  2053     0717                     	;# 
  2054     0718                     	;# 
  2055     0719                     	;# 
  2056     071A                     	;# 
  2057     071B                     	;# 
  2058     071C                     	;# 
  2059     071D                     	;# 
  2060     071E                     	;# 
  2061     071F                     	;# 
  2062     078E                     	;# 
  2063     078F                     	;# 
  2064     0790                     	;# 
  2065     0791                     	;# 
  2066     0792                     	;# 
  2067     0793                     	;# 
  2068     0794                     	;# 
  2069     0795                     	;# 
  2070     0796                     	;# 
  2071     0797                     	;# 
  2072     0798                     	;# 
  2073     0799                     	;# 
  2074     079A                     	;# 
  2075     079B                     	;# 
  2076     079C                     	;# 
  2077     079D                     	;# 
  2078     079E                     	;# 
  2079     079F                     	;# 
  2080     080D                     	;# 
  2081     080E                     	;# 
  2082     080F                     	;# 
  2083     0810                     	;# 
  2084     0811                     	;# 
  2085     0812                     	;# 
  2086     0813                     	;# 
  2087     0814                     	;# 
  2088     0815                     	;# 
  2089     0816                     	;# 
  2090     0817                     	;# 
  2091     0818                     	;# 
  2092     0819                     	;# 
  2093     081A                     	;# 
  2094     081B                     	;# 
  2095     081C                     	;# 
  2096     081D                     	;# 
  2097     081E                     	;# 
  2098     081F                     	;# 
  2099     090C                     	;# 
  2100     090D                     	;# 
  2101     090E                     	;# 
  2102     090F                     	;# 
  2103     0910                     	;# 
  2104     0911                     	;# 
  2105     0912                     	;# 
  2106     0913                     	;# 
  2107     0914                     	;# 
  2108     0915                     	;# 
  2109     0916                     	;# 
  2110     0917                     	;# 
  2111     0D8E                     	;# 
  2112     0D8F                     	;# 
  2113     0D90                     	;# 
  2114     0D91                     	;# 
  2115     0D91                     	;# 
  2116     0D92                     	;# 
  2117     0D93                     	;# 
  2118     0D93                     	;# 
  2119     0D94                     	;# 
  2120     0D95                     	;# 
  2121     0D95                     	;# 
  2122     0D96                     	;# 
  2123     0D97                     	;# 
  2124     0D97                     	;# 
  2125     0D98                     	;# 
  2126     0D99                     	;# 
  2127     0D99                     	;# 
  2128     0D9A                     	;# 
  2129     0D9B                     	;# 
  2130     0D9C                     	;# 
  2131     0D9C                     	;# 
  2132     0D9D                     	;# 
  2133     0D9D                     	;# 
  2134     0D9E                     	;# 
  2135     0D9F                     	;# 
  2136     0DA0                     	;# 
  2137     0DA1                     	;# 
  2138     0DA1                     	;# 
  2139     0DA2                     	;# 
  2140     0DA3                     	;# 
  2141     0DA3                     	;# 
  2142     0DA4                     	;# 
  2143     0DA5                     	;# 
  2144     0DA5                     	;# 
  2145     0DA6                     	;# 
  2146     0DA7                     	;# 
  2147     0DA7                     	;# 
  2148     0DA8                     	;# 
  2149     0DA9                     	;# 
  2150     0DA9                     	;# 
  2151     0DAA                     	;# 
  2152     0DAB                     	;# 
  2153     0DAC                     	;# 
  2154     0DAC                     	;# 
  2155     0DAD                     	;# 
  2156     0DAD                     	;# 
  2157     0DAE                     	;# 
  2158     0DAF                     	;# 
  2159     0DB0                     	;# 
  2160     0DB1                     	;# 
  2161     0DB1                     	;# 
  2162     0DB2                     	;# 
  2163     0DB3                     	;# 
  2164     0DB3                     	;# 
  2165     0DB4                     	;# 
  2166     0DB5                     	;# 
  2167     0DB5                     	;# 
  2168     0DB6                     	;# 
  2169     0DB7                     	;# 
  2170     0DB7                     	;# 
  2171     0DB8                     	;# 
  2172     0DB9                     	;# 
  2173     0DB9                     	;# 
  2174     0DBA                     	;# 
  2175     0DBB                     	;# 
  2176     0DBC                     	;# 
  2177     0DBC                     	;# 
  2178     0DBD                     	;# 
  2179     0DBD                     	;# 
  2180     0DBE                     	;# 
  2181     0DBF                     	;# 
  2182     0DC0                     	;# 
  2183     0E0C                     	;# 
  2184     0E0D                     	;# 
  2185     0E0E                     	;# 
  2186     0E0F                     	;# 
  2187     0E10                     	;# 
  2188     0E11                     	;# 
  2189     0E12                     	;# 
  2190     0E13                     	;# 
  2191     0E14                     	;# 
  2192     0E15                     	;# 
  2193     0E15                     	;# 
  2194     0E15                     	;# 
  2195     0E16                     	;# 
  2196     0E16                     	;# 
  2197     0E16                     	;# 
  2198     0E17                     	;# 
  2199     0E17                     	;# 
  2200     0E17                     	;# 
  2201     0E18                     	;# 
  2202     0E18                     	;# 
  2203     0E18                     	;# 
  2204     0E19                     	;# 
  2205     0E1A                     	;# 
  2206     0E1B                     	;# 
  2207     0E1D                     	;# 
  2208     0E1E                     	;# 
  2209     0E1F                     	;# 
  2210     0E21                     	;# 
  2211     0E22                     	;# 
  2212     0E23                     	;# 
  2213     0E24                     	;# 
  2214     0E25                     	;# 
  2215     0E26                     	;# 
  2216     0E27                     	;# 
  2217     0E28                     	;# 
  2218     0E29                     	;# 
  2219     0E2D                     	;# 
  2220     0E2E                     	;# 
  2221     0E2F                     	;# 
  2222     0E30                     	;# 
  2223     0E31                     	;# 
  2224     0E32                     	;# 
  2225     0E35                     	;# 
  2226     0E36                     	;# 
  2227     0E37                     	;# 
  2228     0E38                     	;# 
  2229     0E39                     	;# 
  2230     0E3A                     	;# 
  2231     0E3B                     	;# 
  2232     0E3C                     	;# 
  2233     0E3D                     	;# 
  2234     0E3E                     	;# 
  2235     0E90                     	;# 
  2236     0E91                     	;# 
  2237     0E92                     	;# 
  2238     0E93                     	;# 
  2239     0E94                     	;# 
  2240     0E95                     	;# 
  2241     0E96                     	;# 
  2242     0E97                     	;# 
  2243     0E98                     	;# 
  2244     0E99                     	;# 
  2245     0E9A                     	;# 
  2246     0E9B                     	;# 
  2247     0E9C                     	;# 
  2248     0E9D                     	;# 
  2249     0E9E                     	;# 
  2250     0E9F                     	;# 
  2251     0EA0                     	;# 
  2252     0EA1                     	;# 
  2253     0EA2                     	;# 
  2254     0EA3                     	;# 
  2255     0EA4                     	;# 
  2256     0EA5                     	;# 
  2257     0EA6                     	;# 
  2258     0EA7                     	;# 
  2259     0F0F                     	;# 
  2260     0F10                     	;# 
  2261     0F11                     	;# 
  2262     0F12                     	;# 
  2263     0F13                     	;# 
  2264     0F14                     	;# 
  2265     0F15                     	;# 
  2266     0F16                     	;# 
  2267     0F17                     	;# 
  2268     0F18                     	;# 
  2269     0F19                     	;# 
  2270     0F1A                     	;# 
  2271     0F1B                     	;# 
  2272     0F1C                     	;# 
  2273     0F1D                     	;# 
  2274     0F1E                     	;# 
  2275     0F1F                     	;# 
  2276     0F20                     	;# 
  2277     0F21                     	;# 
  2278     0F22                     	;# 
  2279     0F23                     	;# 
  2280     0F24                     	;# 
  2281     0F25                     	;# 
  2282     0F26                     	;# 
  2283     0F27                     	;# 
  2284     0F28                     	;# 
  2285     0F29                     	;# 
  2286     0F2A                     	;# 
  2287     0F2B                     	;# 
  2288     0F2C                     	;# 
  2289     0F2D                     	;# 
  2290     0F2E                     	;# 
  2291     0F2F                     	;# 
  2292     0F30                     	;# 
  2293     0F31                     	;# 
  2294     0F32                     	;# 
  2295     0F33                     	;# 
  2296     0F34                     	;# 
  2297     0F35                     	;# 
  2298     0F36                     	;# 
  2299     0F37                     	;# 
  2300     0FE4                     	;# 
  2301     0FE5                     	;# 
  2302     0FE6                     	;# 
  2303     0FE7                     	;# 
  2304     0FE8                     	;# 
  2305     0FE9                     	;# 
  2306     0FEA                     	;# 
  2307     0FEB                     	;# 
  2308     0FED                     	;# 
  2309     0FEE                     	;# 
  2310     0FEF                     	;# 
  2311     0000                     	;# 
  2312     0001                     	;# 
  2313     0002                     	;# 
  2314     0003                     	;# 
  2315     0004                     	;# 
  2316     0005                     	;# 
  2317     0006                     	;# 
  2318     0007                     	;# 
  2319     0008                     	;# 
  2320     0009                     	;# 
  2321     000A                     	;# 
  2322     000B                     	;# 
  2323     000C                     	;# 
  2324     000D                     	;# 
  2325     000E                     	;# 
  2326     0010                     	;# 
  2327     0011                     	;# 
  2328     0012                     	;# 
  2329     0013                     	;# 
  2330     0014                     	;# 
  2331     0015                     	;# 
  2332     0016                     	;# 
  2333     0017                     	;# 
  2334     0018                     	;# 
  2335     0018                     	;# 
  2336     0019                     	;# 
  2337     001A                     	;# 
  2338     001B                     	;# 
  2339     001C                     	;# 
  2340     001C                     	;# 
  2341     001D                     	;# 
  2342     001E                     	;# 
  2343     001F                     	;# 
  2344     008C                     	;# 
  2345     008D                     	;# 
  2346     008E                     	;# 
  2347     0090                     	;# 
  2348     0091                     	;# 
  2349     0092                     	;# 
  2350     0093                     	;# 
  2351     0094                     	;# 
  2352     0095                     	;# 
  2353     0096                     	;# 
  2354     0097                     	;# 
  2355     0098                     	;# 
  2356     0099                     	;# 
  2357     009A                     	;# 
  2358     009B                     	;# 
  2359     009C                     	;# 
  2360     009D                     	;# 
  2361     009E                     	;# 
  2362     009F                     	;# 
  2363     010C                     	;# 
  2364     010D                     	;# 
  2365     010E                     	;# 
  2366     0111                     	;# 
  2367     0112                     	;# 
  2368     0113                     	;# 
  2369     0114                     	;# 
  2370     0115                     	;# 
  2371     0116                     	;# 
  2372     0117                     	;# 
  2373     0118                     	;# 
  2374     0119                     	;# 
  2375     011A                     	;# 
  2376     011B                     	;# 
  2377     011C                     	;# 
  2378     011D                     	;# 
  2379     018C                     	;# 
  2380     018D                     	;# 
  2381     018E                     	;# 
  2382     0191                     	;# 
  2383     0191                     	;# 
  2384     0192                     	;# 
  2385     0193                     	;# 
  2386     0193                     	;# 
  2387     0194                     	;# 
  2388     0195                     	;# 
  2389     0196                     	;# 
  2390     0197                     	;# 
  2391     0199                     	;# 
  2392     0199                     	;# 
  2393     0199                     	;# 
  2394     019A                     	;# 
  2395     019A                     	;# 
  2396     019A                     	;# 
  2397     019B                     	;# 
  2398     019B                     	;# 
  2399     019B                     	;# 
  2400     019B                     	;# 
  2401     019B                     	;# 
  2402     019C                     	;# 
  2403     019C                     	;# 
  2404     019C                     	;# 
  2405     019D                     	;# 
  2406     019D                     	;# 
  2407     019D                     	;# 
  2408     019E                     	;# 
  2409     019E                     	;# 
  2410     019E                     	;# 
  2411     019F                     	;# 
  2412     019F                     	;# 
  2413     019F                     	;# 
  2414     019F                     	;# 
  2415     019F                     	;# 
  2416     020C                     	;# 
  2417     020D                     	;# 
  2418     020E                     	;# 
  2419     0210                     	;# 
  2420     0211                     	;# 
  2421     0211                     	;# 
  2422     0212                     	;# 
  2423     0212                     	;# 
  2424     0213                     	;# 
  2425     0213                     	;# 
  2426     0214                     	;# 
  2427     0214                     	;# 
  2428     0215                     	;# 
  2429     0215                     	;# 
  2430     0215                     	;# 
  2431     0215                     	;# 
  2432     0216                     	;# 
  2433     0216                     	;# 
  2434     0217                     	;# 
  2435     0217                     	;# 
  2436     021B                     	;# 
  2437     021C                     	;# 
  2438     021D                     	;# 
  2439     021E                     	;# 
  2440     021F                     	;# 
  2441     028C                     	;# 
  2442     028D                     	;# 
  2443     028E                     	;# 
  2444     0291                     	;# 
  2445     0291                     	;# 
  2446     0292                     	;# 
  2447     0293                     	;# 
  2448     0294                     	;# 
  2449     0295                     	;# 
  2450     0295                     	;# 
  2451     0296                     	;# 
  2452     0297                     	;# 
  2453     0298                     	;# 
  2454     0299                     	;# 
  2455     0299                     	;# 
  2456     029A                     	;# 
  2457     029B                     	;# 
  2458     029C                     	;# 
  2459     029E                     	;# 
  2460     029F                     	;# 
  2461     030C                     	;# 
  2462     030D                     	;# 
  2463     030E                     	;# 
  2464     0315                     	;# 
  2465     0316                     	;# 
  2466     0317                     	;# 
  2467     0318                     	;# 
  2468     0319                     	;# 
  2469     031B                     	;# 
  2470     031C                     	;# 
  2471     031D                     	;# 
  2472     031E                     	;# 
  2473     031F                     	;# 
  2474     038C                     	;# 
  2475     038D                     	;# 
  2476     038E                     	;# 
  2477     0390                     	;# 
  2478     0391                     	;# 
  2479     0392                     	;# 
  2480     0393                     	;# 
  2481     0394                     	;# 
  2482     0395                     	;# 
  2483     0396                     	;# 
  2484     0397                     	;# 
  2485     0398                     	;# 
  2486     0399                     	;# 
  2487     039D                     	;# 
  2488     039E                     	;# 
  2489     039F                     	;# 
  2490     040D                     	;# 
  2491     040F                     	;# 
  2492     040F                     	;# 
  2493     0410                     	;# 
  2494     0411                     	;# 
  2495     0412                     	;# 
  2496     0413                     	;# 
  2497     0413                     	;# 
  2498     0414                     	;# 
  2499     0414                     	;# 
  2500     0415                     	;# 
  2501     0416                     	;# 
  2502     0417                     	;# 
  2503     0418                     	;# 
  2504     041A                     	;# 
  2505     041A                     	;# 
  2506     041B                     	;# 
  2507     041B                     	;# 
  2508     041C                     	;# 
  2509     041D                     	;# 
  2510     041E                     	;# 
  2511     041F                     	;# 
  2512     048E                     	;# 
  2513     048E                     	;# 
  2514     048F                     	;# 
  2515     0490                     	;# 
  2516     0491                     	;# 
  2517     0492                     	;# 
  2518     0493                     	;# 
  2519     0493                     	;# 
  2520     0494                     	;# 
  2521     0494                     	;# 
  2522     0495                     	;# 
  2523     0496                     	;# 
  2524     0497                     	;# 
  2525     0498                     	;# 
  2526     049A                     	;# 
  2527     049A                     	;# 
  2528     049B                     	;# 
  2529     049B                     	;# 
  2530     049C                     	;# 
  2531     049D                     	;# 
  2532     049E                     	;# 
  2533     049F                     	;# 
  2534     050F                     	;# 
  2535     0510                     	;# 
  2536     0511                     	;# 
  2537     0512                     	;# 
  2538     0513                     	;# 
  2539     0514                     	;# 
  2540     0515                     	;# 
  2541     0516                     	;# 
  2542     0517                     	;# 
  2543     0518                     	;# 
  2544     0519                     	;# 
  2545     051A                     	;# 
  2546     058D                     	;# 
  2547     058E                     	;# 
  2548     058F                     	;# 
  2549     058F                     	;# 
  2550     058F                     	;# 
  2551     0590                     	;# 
  2552     0590                     	;# 
  2553     0591                     	;# 
  2554     0592                     	;# 
  2555     0592                     	;# 
  2556     0592                     	;# 
  2557     0593                     	;# 
  2558     0593                     	;# 
  2559     0594                     	;# 
  2560     0595                     	;# 
  2561     0595                     	;# 
  2562     0596                     	;# 
  2563     0597                     	;# 
  2564     0597                     	;# 
  2565     0598                     	;# 
  2566     0599                     	;# 
  2567     0599                     	;# 
  2568     0599                     	;# 
  2569     059A                     	;# 
  2570     059A                     	;# 
  2571     059E                     	;# 
  2572     059F                     	;# 
  2573     059F                     	;# 
  2574     0614                     	;# 
  2575     0614                     	;# 
  2576     0615                     	;# 
  2577     0616                     	;# 
  2578     0617                     	;# 
  2579     0617                     	;# 
  2580     0618                     	;# 
  2581     0619                     	;# 
  2582     061A                     	;# 
  2583     061A                     	;# 
  2584     061B                     	;# 
  2585     061C                     	;# 
  2586     068D                     	;# 
  2587     068E                     	;# 
  2588     068F                     	;# 
  2589     0690                     	;# 
  2590     0691                     	;# 
  2591     0692                     	;# 
  2592     0693                     	;# 
  2593     0694                     	;# 
  2594     0695                     	;# 
  2595     0696                     	;# 
  2596     0697                     	;# 
  2597     0698                     	;# 
  2598     0699                     	;# 
  2599     069A                     	;# 
  2600     069B                     	;# 
  2601     069C                     	;# 
  2602     069D                     	;# 
  2603     069E                     	;# 
  2604     069F                     	;# 
  2605     070D                     	;# 
  2606     070E                     	;# 
  2607     070F                     	;# 
  2608     0710                     	;# 
  2609     0711                     	;# 
  2610     0712                     	;# 
  2611     0713                     	;# 
  2612     0714                     	;# 
  2613     0715                     	;# 
  2614     0716                     	;# 
  2615     0717                     	;# 
  2616     0718                     	;# 
  2617     0719                     	;# 
  2618     071A                     	;# 
  2619     071B                     	;# 
  2620     071C                     	;# 
  2621     071D                     	;# 
  2622     071E                     	;# 
  2623     071F                     	;# 
  2624     078E                     	;# 
  2625     078F                     	;# 
  2626     0790                     	;# 
  2627     0791                     	;# 
  2628     0792                     	;# 
  2629     0793                     	;# 
  2630     0794                     	;# 
  2631     0795                     	;# 
  2632     0796                     	;# 
  2633     0797                     	;# 
  2634     0798                     	;# 
  2635     0799                     	;# 
  2636     079A                     	;# 
  2637     079B                     	;# 
  2638     079C                     	;# 
  2639     079D                     	;# 
  2640     079E                     	;# 
  2641     079F                     	;# 
  2642     080D                     	;# 
  2643     080E                     	;# 
  2644     080F                     	;# 
  2645     0810                     	;# 
  2646     0811                     	;# 
  2647     0812                     	;# 
  2648     0813                     	;# 
  2649     0814                     	;# 
  2650     0815                     	;# 
  2651     0816                     	;# 
  2652     0817                     	;# 
  2653     0818                     	;# 
  2654     0819                     	;# 
  2655     081A                     	;# 
  2656     081B                     	;# 
  2657     081C                     	;# 
  2658     081D                     	;# 
  2659     081E                     	;# 
  2660     081F                     	;# 
  2661     090C                     	;# 
  2662     090D                     	;# 
  2663     090E                     	;# 
  2664     090F                     	;# 
  2665     0910                     	;# 
  2666     0911                     	;# 
  2667     0912                     	;# 
  2668     0913                     	;# 
  2669     0914                     	;# 
  2670     0915                     	;# 
  2671     0916                     	;# 
  2672     0917                     	;# 
  2673     0D8E                     	;# 
  2674     0D8F                     	;# 
  2675     0D90                     	;# 
  2676     0D91                     	;# 
  2677     0D91                     	;# 
  2678     0D92                     	;# 
  2679     0D93                     	;# 
  2680     0D93                     	;# 
  2681     0D94                     	;# 
  2682     0D95                     	;# 
  2683     0D95                     	;# 
  2684     0D96                     	;# 
  2685     0D97                     	;# 
  2686     0D97                     	;# 
  2687     0D98                     	;# 
  2688     0D99                     	;# 
  2689     0D99                     	;# 
  2690     0D9A                     	;# 
  2691     0D9B                     	;# 
  2692     0D9C                     	;# 
  2693     0D9C                     	;# 
  2694     0D9D                     	;# 
  2695     0D9D                     	;# 
  2696     0D9E                     	;# 
  2697     0D9F                     	;# 
  2698     0DA0                     	;# 
  2699     0DA1                     	;# 
  2700     0DA1                     	;# 
  2701     0DA2                     	;# 
  2702     0DA3                     	;# 
  2703     0DA3                     	;# 
  2704     0DA4                     	;# 
  2705     0DA5                     	;# 
  2706     0DA5                     	;# 
  2707     0DA6                     	;# 
  2708     0DA7                     	;# 
  2709     0DA7                     	;# 
  2710     0DA8                     	;# 
  2711     0DA9                     	;# 
  2712     0DA9                     	;# 
  2713     0DAA                     	;# 
  2714     0DAB                     	;# 
  2715     0DAC                     	;# 
  2716     0DAC                     	;# 
  2717     0DAD                     	;# 
  2718     0DAD                     	;# 
  2719     0DAE                     	;# 
  2720     0DAF                     	;# 
  2721     0DB0                     	;# 
  2722     0DB1                     	;# 
  2723     0DB1                     	;# 
  2724     0DB2                     	;# 
  2725     0DB3                     	;# 
  2726     0DB3                     	;# 
  2727     0DB4                     	;# 
  2728     0DB5                     	;# 
  2729     0DB5                     	;# 
  2730     0DB6                     	;# 
  2731     0DB7                     	;# 
  2732     0DB7                     	;# 
  2733     0DB8                     	;# 
  2734     0DB9                     	;# 
  2735     0DB9                     	;# 
  2736     0DBA                     	;# 
  2737     0DBB                     	;# 
  2738     0DBC                     	;# 
  2739     0DBC                     	;# 
  2740     0DBD                     	;# 
  2741     0DBD                     	;# 
  2742     0DBE                     	;# 
  2743     0DBF                     	;# 
  2744     0DC0                     	;# 
  2745     0E0C                     	;# 
  2746     0E0D                     	;# 
  2747     0E0E                     	;# 
  2748     0E0F                     	;# 
  2749     0E10                     	;# 
  2750     0E11                     	;# 
  2751     0E12                     	;# 
  2752     0E13                     	;# 
  2753     0E14                     	;# 
  2754     0E15                     	;# 
  2755     0E15                     	;# 
  2756     0E15                     	;# 
  2757     0E16                     	;# 
  2758     0E16                     	;# 
  2759     0E16                     	;# 
  2760     0E17                     	;# 
  2761     0E17                     	;# 
  2762     0E17                     	;# 
  2763     0E18                     	;# 
  2764     0E18                     	;# 
  2765     0E18                     	;# 
  2766     0E19                     	;# 
  2767     0E1A                     	;# 
  2768     0E1B                     	;# 
  2769     0E1D                     	;# 
  2770     0E1E                     	;# 
  2771     0E1F                     	;# 
  2772     0E21                     	;# 
  2773     0E22                     	;# 
  2774     0E23                     	;# 
  2775     0E24                     	;# 
  2776     0E25                     	;# 
  2777     0E26                     	;# 
  2778     0E27                     	;# 
  2779     0E28                     	;# 
  2780     0E29                     	;# 
  2781     0E2D                     	;# 
  2782     0E2E                     	;# 
  2783     0E2F                     	;# 
  2784     0E30                     	;# 
  2785     0E31                     	;# 
  2786     0E32                     	;# 
  2787     0E35                     	;# 
  2788     0E36                     	;# 
  2789     0E37                     	;# 
  2790     0E38                     	;# 
  2791     0E39                     	;# 
  2792     0E3A                     	;# 
  2793     0E3B                     	;# 
  2794     0E3C                     	;# 
  2795     0E3D                     	;# 
  2796     0E3E                     	;# 
  2797     0E90                     	;# 
  2798     0E91                     	;# 
  2799     0E92                     	;# 
  2800     0E93                     	;# 
  2801     0E94                     	;# 
  2802     0E95                     	;# 
  2803     0E96                     	;# 
  2804     0E97                     	;# 
  2805     0E98                     	;# 
  2806     0E99                     	;# 
  2807     0E9A                     	;# 
  2808     0E9B                     	;# 
  2809     0E9C                     	;# 
  2810     0E9D                     	;# 
  2811     0E9E                     	;# 
  2812     0E9F                     	;# 
  2813     0EA0                     	;# 
  2814     0EA1                     	;# 
  2815     0EA2                     	;# 
  2816     0EA3                     	;# 
  2817     0EA4                     	;# 
  2818     0EA5                     	;# 
  2819     0EA6                     	;# 
  2820     0EA7                     	;# 
  2821     0F0F                     	;# 
  2822     0F10                     	;# 
  2823     0F11                     	;# 
  2824     0F12                     	;# 
  2825     0F13                     	;# 
  2826     0F14                     	;# 
  2827     0F15                     	;# 
  2828     0F16                     	;# 
  2829     0F17                     	;# 
  2830     0F18                     	;# 
  2831     0F19                     	;# 
  2832     0F1A                     	;# 
  2833     0F1B                     	;# 
  2834     0F1C                     	;# 
  2835     0F1D                     	;# 
  2836     0F1E                     	;# 
  2837     0F1F                     	;# 
  2838     0F20                     	;# 
  2839     0F21                     	;# 
  2840     0F22                     	;# 
  2841     0F23                     	;# 
  2842     0F24                     	;# 
  2843     0F25                     	;# 
  2844     0F26                     	;# 
  2845     0F27                     	;# 
  2846     0F28                     	;# 
  2847     0F29                     	;# 
  2848     0F2A                     	;# 
  2849     0F2B                     	;# 
  2850     0F2C                     	;# 
  2851     0F2D                     	;# 
  2852     0F2E                     	;# 
  2853     0F2F                     	;# 
  2854     0F30                     	;# 
  2855     0F31                     	;# 
  2856     0F32                     	;# 
  2857     0F33                     	;# 
  2858     0F34                     	;# 
  2859     0F35                     	;# 
  2860     0F36                     	;# 
  2861     0F37                     	;# 
  2862     0FE4                     	;# 
  2863     0FE5                     	;# 
  2864     0FE6                     	;# 
  2865     0FE7                     	;# 
  2866     0FE8                     	;# 
  2867     0FE9                     	;# 
  2868     0FEA                     	;# 
  2869     0FEB                     	;# 
  2870     0FED                     	;# 
  2871     0FEE                     	;# 
  2872     0FEF                     	;# 
  2873                           
  2874                           	psect	nvCOMMON
  2875     0075                     __pnvCOMMON:
  2876     0075                     _TMR1_InterruptHandler:
  2877     0075                     	ds	2
  2878     0077                     _timer1ReloadVal:
  2879     0077                     	ds	2
  2880     001B                     _T1GCONbits	set	27
  2881     001A                     _T1CONbits	set	26
  2882     001A                     _T1CON	set	26
  2883     0018                     _TMR1L	set	24
  2884     0019                     _TMR1H	set	25
  2885     001B                     _T1GCON	set	27
  2886     0011                     _PIR1bits	set	17
  2887     000E                     _PORTCbits	set	14
  2888     000B                     _INTCONbits	set	11
  2889     0097                     _OPTION_REGbits	set	151
  2890     008E                     _TRISC	set	142
  2891     008D                     _TRISB	set	141
  2892     008C                     _TRISA	set	140
  2893     0090                     _TRISE	set	144
  2894     0091                     _PIE1bits	set	145
  2895     0099                     _WDTCON	set	153
  2896     009D                     _BORCON	set	157
  2897     009A                     _OSCTUNE	set	154
  2898     009C                     _OSCSTAT	set	156
  2899     009B                     _OSCCON	set	155
  2900     010E                     _LATC	set	270
  2901     010D                     _LATB	set	269
  2902     010C                     _LATA	set	268
  2903     010D                     _LATBbits	set	269
  2904     018C                     _ANSELA	set	396
  2905     018D                     _ANSELB	set	397
  2906     018E                     _ANSELC	set	398
  2907     020E                     _WPUC	set	526
  2908     020C                     _WPUA	set	524
  2909     020D                     _WPUB	set	525
  2910     0210                     _WPUE	set	528
  2911     028E                     _ODCONC	set	654
  2912     028D                     _ODCONB	set	653
  2913     028C                     _ODCONA	set	652
  2914     030E                     _SLRCONC	set	782
  2915     030D                     _SLRCONB	set	781
  2916     030C                     _SLRCONA	set	780
  2917     038E                     _INLVLC	set	910
  2918     038D                     _INLVLB	set	909
  2919     038C                     _INLVLA	set	908
  2920                           
  2921                           	psect	cinit
  2922     001B                     start_initialization:	
  2923                           ; #config settings
  2924                           
  2925     001B                     __initialization:
  2926                           
  2927                           ; Clear objects allocated to COMMON
  2928     001B  01F9               	clrf	__pbssCOMMON& (0+127)
  2929     001C  01FA               	clrf	(__pbssCOMMON+1)& (0+127)
  2930     001D                     end_of_initialization:	
  2931                           ;End of C runtime variable initialization code
  2932                           
  2933     001D                     __end_of__initialization:
  2934     001D  107E               	bcf	int$flags,0	;clear compiler interrupt flag (level 1)
  2935     001E  0020               	movlb	0
  2936     001F  3180  2821         	ljmp	_main	;jump to C main() function
  2937                           
  2938                           	psect	bssCOMMON
  2939     0079                     __pbssCOMMON:
  2940     0079                     TMR1_ISR@CountCallBack:
  2941     0079                     	ds	2
  2942                           
  2943                           	psect	cstackCOMMON
  2944     0070                     __pcstackCOMMON:
  2945     0070                     ?_SYSTEM_Initialize:
  2946     0070                     ?_TMR1_StopTimer:	
  2947                           ; 1 bytes @ 0x0
  2948                           
  2949     0070                     ?_TMR1_interrupt:	
  2950                           ; 1 bytes @ 0x0
  2951                           
  2952     0070                     ??_TMR1_interrupt:	
  2953                           ; 1 bytes @ 0x0
  2954                           
  2955     0070                     ?_TMR1_StartTimer:	
  2956                           ; 1 bytes @ 0x0
  2957                           
  2958     0070                     ?_PIN_MANAGER_Initialize:	
  2959                           ; 1 bytes @ 0x0
  2960                           
  2961     0070                     ?_OSCILLATOR_Initialize:	
  2962                           ; 1 bytes @ 0x0
  2963                           
  2964     0070                     ?_WDT_Initialize:	
  2965                           ; 1 bytes @ 0x0
  2966                           
  2967     0070                     ?_TMR1_Initialize:	
  2968                           ; 1 bytes @ 0x0
  2969                           
  2970     0070                     ?_TMR1_ISR:	
  2971                           ; 1 bytes @ 0x0
  2972                           
  2973     0070                     ?_TMR1_DefaultInterruptHandler:	
  2974                           ; 1 bytes @ 0x0
  2975                           
  2976     0070                     ??_TMR1_DefaultInterruptHandler:	
  2977                           ; 1 bytes @ 0x0
  2978                           
  2979     0070                     ?_TMR1_CallBack:	
  2980                           ; 1 bytes @ 0x0
  2981                           
  2982     0070                     ??_TMR1_CallBack:	
  2983                           ; 1 bytes @ 0x0
  2984                           
  2985     0070                     ?_main:	
  2986                           ; 1 bytes @ 0x0
  2987                           
  2988     0070                     ?_INTERRUPT_InterruptManager:	
  2989                           ; 1 bytes @ 0x0
  2990                           
  2991     0070                     ?_TMR1_WriteTimer:	
  2992                           ; 1 bytes @ 0x0
  2993                           
  2994     0070                     TMR1_WriteTimer@timerVal:	
  2995                           ; 1 bytes @ 0x0
  2996                           
  2997                           
  2998                           ; 2 bytes @ 0x0
  2999     0070                     	ds	2
  3000     0072                     ??_TMR1_StopTimer:
  3001     0072                     ?_TMR1_SetInterruptHandler:	
  3002                           ; 1 bytes @ 0x2
  3003                           
  3004     0072                     ??_TMR1_StartTimer:	
  3005                           ; 1 bytes @ 0x2
  3006                           
  3007     0072                     ??_PIN_MANAGER_Initialize:	
  3008                           ; 1 bytes @ 0x2
  3009                           
  3010     0072                     ??_OSCILLATOR_Initialize:	
  3011                           ; 1 bytes @ 0x2
  3012                           
  3013     0072                     ??_WDT_Initialize:	
  3014                           ; 1 bytes @ 0x2
  3015                           
  3016     0072                     ??_TMR1_ISR:	
  3017                           ; 1 bytes @ 0x2
  3018                           
  3019     0072                     ??_INTERRUPT_InterruptManager:	
  3020                           ; 1 bytes @ 0x2
  3021                           
  3022     0072                     ??_TMR1_WriteTimer:	
  3023                           ; 1 bytes @ 0x2
  3024                           
  3025     0072                     TMR1_SetInterruptHandler@InterruptHandler:	
  3026                           ; 1 bytes @ 0x2
  3027                           
  3028                           
  3029                           ; 2 bytes @ 0x2
  3030     0072                     	ds	2
  3031     0074                     ??_SYSTEM_Initialize:
  3032     0074                     ??_TMR1_SetInterruptHandler:	
  3033                           ; 1 bytes @ 0x4
  3034                           
  3035     0074                     ??_TMR1_Initialize:	
  3036                           ; 1 bytes @ 0x4
  3037                           
  3038     0074                     ??_main:	
  3039                           ; 1 bytes @ 0x4
  3040                           
  3041                           
  3042                           ; 1 bytes @ 0x4
  3043     0074                     	ds	1
  3044                           
  3045                           	psect	cstackBANK0
  3046     0020                     __pcstackBANK0:
  3047     0020                     main@frag:
  3048                           
  3049                           ; 2 bytes @ 0x0
  3050     0020                     	ds	2
  3051                           
  3052                           	psect	maintext
  3053     0021                     __pmaintext:	
  3054 ;;
  3055 ;;Main: autosize = 0, tempsize = 1, incstack = 0, save=0
  3056 ;;
  3057 ;; *************** function _main *****************
  3058 ;; Defined at:
  3059 ;;		line 52 in file "main.c"
  3060 ;; Parameters:    Size  Location     Type
  3061 ;;		None
  3062 ;; Auto vars:     Size  Location     Type
  3063 ;;  frag            2    0[BANK0 ] int 
  3064 ;; Return value:  Size  Location     Type
  3065 ;;                  1    wreg      void 
  3066 ;; Registers used:
  3067 ;;		wreg, status,2, status,0, pclath, cstack
  3068 ;; Tracked objects:
  3069 ;;		On entry : B1F/0
  3070 ;;		On exit  : 0/0
  3071 ;;		Unchanged: 0/0
  3072 ;; Data sizes:     COMMON   BANK0   BANK1   BANK2   BANK3   BANK4   BANK5   BANK6   BANK7   BANK8   BANK9  BANK10  BANK1
      +1  BANK12  BANK13  BANK14  BANK15  BANK16  BANK17  BANK18  BANK19  BANK20  BANK21  BANK22  BANK23  BANK24  BANK25
  3073 ;;      Params:         0       0       0       0       0       0       0       0       0       0       0       0       
      +0       0       0       0       0       0       0       0       0       0       0       0       0       0       0
  3074 ;;      Locals:         0       2       0       0       0       0       0       0       0       0       0       0       
      +0       0       0       0       0       0       0       0       0       0       0       0       0       0       0
  3075 ;;      Temps:          1       0       0       0       0       0       0       0       0       0       0       0       
      +0       0       0       0       0       0       0       0       0       0       0       0       0       0       0
  3076 ;;      Totals:         1       2       0       0       0       0       0       0       0       0       0       0       
      +0       0       0       0       0       0       0       0       0       0       0       0       0       0       0
  3077 ;;Total ram usage:        3 bytes
  3078 ;; Hardware stack levels required when called: 7
  3079 ;; This function calls:
  3080 ;;		_SYSTEM_Initialize
  3081 ;;		_TMR1_SetInterruptHandler
  3082 ;;		_TMR1_StartTimer
  3083 ;;		_TMR1_StopTimer
  3084 ;; This function is called by:
  3085 ;;		Startup code after reset
  3086 ;; This function uses a non-reentrant model
  3087 ;;
  3088                           
  3089     0021                     _main:	
  3090                           ;psect for function _main
  3091                           
  3092     0021                     l1061:	
  3093                           ;incstack = 0
  3094                           ; Regs used in _main: [wreg+status,2+status,0+pclath+cstack]
  3095                           
  3096                           
  3097                           ;main.c: 55:     SYSTEM_Initialize();
  3098     0021  3180  20F5  3180   	fcall	_SYSTEM_Initialize
  3099     0024                     l1063:
  3100                           
  3101                           ;main.c: 57:     int frag = 0;
  3102     0024  0020               	movlb	0	; select bank0
  3103     0025  01A0               	clrf	main@frag
  3104     0026  01A1               	clrf	main@frag+1
  3105     0027                     l1065:
  3106                           
  3107                           ;main.c: 63:     (INTCONbits.GIE = 1);
  3108     0027  178B               	bsf	11,7	;volatile
  3109     0028                     l1067:
  3110                           
  3111                           ;main.c: 66:     (INTCONbits.PEIE = 1);
  3112     0028  170B               	bsf	11,6	;volatile
  3113     0029                     l1069:
  3114     0029  0022               	movlb	2	; select bank2
  3115     002A  110D               	bcf	13,2	;volatile
  3116     002B                     l1071:
  3117                           
  3118                           ;main.c: 75:     TMR1_StopTimer();
  3119     002B  3181  212C  3180   	fcall	_TMR1_StopTimer
  3120     002E                     l1073:
  3121                           
  3122                           ;main.c: 76:     TMR1_SetInterruptHandler(TMR1_interrupt);
  3123     002E  3002               	movlw	low _TMR1_interrupt
  3124     002F  00F2               	movwf	TMR1_SetInterruptHandler@InterruptHandler
  3125     0030  3001               	movlw	high _TMR1_interrupt
  3126     0031  00F3               	movwf	TMR1_SetInterruptHandler@InterruptHandler+1
  3127     0032  3181  2123  3180   	fcall	_TMR1_SetInterruptHandler
  3128     0035                     l1075:
  3129                           
  3130                           ;main.c: 79:     {;main.c: 81:         if((PORTCbits.RC7 == 1) && (frag == 0)){
  3131     0035  0020               	movlb	0	; select bank0
  3132     0036  1F8E               	btfss	14,7	;volatile
  3133     0037  2839               	goto	u261
  3134     0038  283A               	goto	u260
  3135     0039                     u261:
  3136     0039  285B               	goto	l1087
  3137     003A                     u260:
  3138     003A                     l1077:
  3139     003A  0820               	movf	main@frag,w
  3140     003B  0421               	iorwf	main@frag+1,w
  3141     003C  1D03               	btfss	3,2
  3142     003D  283F               	goto	u271
  3143     003E  2840               	goto	u270
  3144     003F                     u271:
  3145     003F  285B               	goto	l1087
  3146     0040                     u270:
  3147     0040                     l1079:
  3148                           
  3149                           ;main.c: 83:             _delay((unsigned long)((50)*(8000000/4000.0)));
  3150     0040  3082               	movlw	130
  3151     0041  00F4               	movwf	??_main
  3152     0042  30DE               	movlw	222
  3153     0043                     u327:
  3154     0043  0B89               	decfsz	9,f
  3155     0044  2843               	goto	u327
  3156     0045  0BF4               	decfsz	??_main,f
  3157     0046  2843               	goto	u327
  3158     0047                     l27:	
  3159                           ;main.c: 84:             while(PORTCbits.RC7 == 1);
  3160                           
  3161     0047  0020               	movlb	0	; select bank0
  3162     0048  1B8E               	btfsc	14,7	;volatile
  3163     0049  284B               	goto	u281
  3164     004A  284C               	goto	u280
  3165     004B                     u281:
  3166     004B  2847               	goto	l27
  3167     004C                     u280:
  3168     004C                     l1081:
  3169                           
  3170                           ;main.c: 85:             _delay((unsigned long)((50)*(8000000/4000.0)));
  3171     004C  3082               	movlw	130
  3172     004D  00F4               	movwf	??_main
  3173     004E  30DE               	movlw	222
  3174     004F                     u337:
  3175     004F  0B89               	decfsz	9,f
  3176     0050  284F               	goto	u337
  3177     0051  0BF4               	decfsz	??_main,f
  3178     0052  284F               	goto	u337
  3179     0053                     l1083:
  3180                           
  3181                           ;main.c: 88:             TMR1_StartTimer();
  3182     0053  3181  212F  3180   	fcall	_TMR1_StartTimer
  3183     0056                     l1085:
  3184                           
  3185                           ;main.c: 89:             frag = 1;
  3186     0056  3001               	movlw	1
  3187     0057  0020               	movlb	0	; select bank0
  3188     0058  00A0               	movwf	main@frag
  3189     0059  3000               	movlw	0
  3190     005A  00A1               	movwf	main@frag+1
  3191     005B                     l1087:
  3192                           
  3193                           ;main.c: 91:         if((frag == 1) && (PORTCbits.RC7 == 1)){
  3194     005B  0320               	decf	main@frag,w
  3195     005C  0421               	iorwf	main@frag+1,w
  3196     005D  1D03               	btfss	3,2
  3197     005E  2860               	goto	u291
  3198     005F  2861               	goto	u290
  3199     0060                     u291:
  3200     0060  2835               	goto	l1075
  3201     0061                     u290:
  3202     0061                     l1089:
  3203     0061  1F8E               	btfss	14,7	;volatile
  3204     0062  2864               	goto	u301
  3205     0063  2865               	goto	u300
  3206     0064                     u301:
  3207     0064  2835               	goto	l1075
  3208     0065                     u300:
  3209     0065                     l1091:
  3210                           
  3211                           ;main.c: 93:             _delay((unsigned long)((50)*(8000000/4000.0)));
  3212     0065  3082               	movlw	130
  3213     0066  00F4               	movwf	??_main
  3214     0067  30DE               	movlw	222
  3215     0068                     u347:
  3216     0068  0B89               	decfsz	9,f
  3217     0069  2868               	goto	u347
  3218     006A  0BF4               	decfsz	??_main,f
  3219     006B  2868               	goto	u347
  3220     006C                     l31:	
  3221                           ;main.c: 94:             while(PORTCbits.RC7 == 1);
  3222                           
  3223     006C  0020               	movlb	0	; select bank0
  3224     006D  1B8E               	btfsc	14,7	;volatile
  3225     006E  2870               	goto	u311
  3226     006F  2871               	goto	u310
  3227     0070                     u311:
  3228     0070  286C               	goto	l31
  3229     0071                     u310:
  3230     0071                     l1093:
  3231                           
  3232                           ;main.c: 95:             _delay((unsigned long)((50)*(8000000/4000.0)));
  3233     0071  3082               	movlw	130
  3234     0072  00F4               	movwf	??_main
  3235     0073  30DE               	movlw	222
  3236     0074                     u357:
  3237     0074  0B89               	decfsz	9,f
  3238     0075  2874               	goto	u357
  3239     0076  0BF4               	decfsz	??_main,f
  3240     0077  2874               	goto	u357
  3241     0078                     l1095:
  3242                           
  3243                           ;main.c: 98:             TMR1_StopTimer();
  3244     0078  3181  212C  3180   	fcall	_TMR1_StopTimer
  3245     007B                     l1097:
  3246                           
  3247                           ;main.c: 99:             frag = 0;
  3248     007B  0020               	movlb	0	; select bank0
  3249     007C  01A0               	clrf	main@frag
  3250     007D  01A1               	clrf	main@frag+1
  3251     007E  2835               	goto	l1075
  3252     007F  3180  2819         	ljmp	start
  3253     0081                     __end_of_main:
  3254                           
  3255                           	psect	text1
  3256     012C                     __ptext1:	
  3257 ;; *************** function _TMR1_StopTimer *****************
  3258 ;; Defined at:
  3259 ;;		line 99 in file "mcc_generated_files/tmr1.c"
  3260 ;; Parameters:    Size  Location     Type
  3261 ;;		None
  3262 ;; Auto vars:     Size  Location     Type
  3263 ;;		None
  3264 ;; Return value:  Size  Location     Type
  3265 ;;                  1    wreg      void 
  3266 ;; Registers used:
  3267 ;;		None
  3268 ;; Tracked objects:
  3269 ;;		On entry : 0/0
  3270 ;;		On exit  : 0/0
  3271 ;;		Unchanged: 0/0
  3272 ;; Data sizes:     COMMON   BANK0   BANK1   BANK2   BANK3   BANK4   BANK5   BANK6   BANK7   BANK8   BANK9  BANK10  BANK1
      +1  BANK12  BANK13  BANK14  BANK15  BANK16  BANK17  BANK18  BANK19  BANK20  BANK21  BANK22  BANK23  BANK24  BANK25
  3273 ;;      Params:         0       0       0       0       0       0       0       0       0       0       0       0       
      +0       0       0       0       0       0       0       0       0       0       0       0       0       0       0
  3274 ;;      Locals:         0       0       0       0       0       0       0       0       0       0       0       0       
      +0       0       0       0       0       0       0       0       0       0       0       0       0       0       0
  3275 ;;      Temps:          0       0       0       0       0       0       0       0       0       0       0       0       
      +0       0       0       0       0       0       0       0       0       0       0       0       0       0       0
  3276 ;;      Totals:         0       0       0       0       0       0       0       0       0       0       0       0       
      +0       0       0       0       0       0       0       0       0       0       0       0       0       0       0
  3277 ;;Total ram usage:        0 bytes
  3278 ;; Hardware stack levels used: 1
  3279 ;; Hardware stack levels required when called: 4
  3280 ;; This function calls:
  3281 ;;		Nothing
  3282 ;; This function is called by:
  3283 ;;		_main
  3284 ;; This function uses a non-reentrant model
  3285 ;;
  3286                           
  3287     012C                     _TMR1_StopTimer:	
  3288                           ;psect for function _TMR1_StopTimer
  3289                           
  3290     012C                     l1057:	
  3291                           ;incstack = 0
  3292                           ; Regs used in _TMR1_StopTimer: []
  3293                           
  3294                           
  3295                           ;mcc_generated_files/tmr1.c: 102:     T1CONbits.TMR1ON = 0;
  3296     012C  0020               	movlb	0	; select bank0
  3297     012D  101A               	bcf	26,0	;volatile
  3298     012E                     l174:
  3299     012E  0008               	return
  3300     012F                     __end_of_TMR1_StopTimer:
  3301                           
  3302                           	psect	text2
  3303     012F                     __ptext2:	
  3304 ;; *************** function _TMR1_StartTimer *****************
  3305 ;; Defined at:
  3306 ;;		line 93 in file "mcc_generated_files/tmr1.c"
  3307 ;; Parameters:    Size  Location     Type
  3308 ;;		None
  3309 ;; Auto vars:     Size  Location     Type
  3310 ;;		None
  3311 ;; Return value:  Size  Location     Type
  3312 ;;                  1    wreg      void 
  3313 ;; Registers used:
  3314 ;;		None
  3315 ;; Tracked objects:
  3316 ;;		On entry : 0/0
  3317 ;;		On exit  : 0/0
  3318 ;;		Unchanged: 0/0
  3319 ;; Data sizes:     COMMON   BANK0   BANK1   BANK2   BANK3   BANK4   BANK5   BANK6   BANK7   BANK8   BANK9  BANK10  BANK1
      +1  BANK12  BANK13  BANK14  BANK15  BANK16  BANK17  BANK18  BANK19  BANK20  BANK21  BANK22  BANK23  BANK24  BANK25
  3320 ;;      Params:         0       0       0       0       0       0       0       0       0       0       0       0       
      +0       0       0       0       0       0       0       0       0       0       0       0       0       0       0
  3321 ;;      Locals:         0       0       0       0       0       0       0       0       0       0       0       0       
      +0       0       0       0       0       0       0       0       0       0       0       0       0       0       0
  3322 ;;      Temps:          0       0       0       0       0       0       0       0       0       0       0       0       
      +0       0       0       0       0       0       0       0       0       0       0       0       0       0       0
  3323 ;;      Totals:         0       0       0       0       0       0       0       0       0       0       0       0       
      +0       0       0       0       0       0       0       0       0       0       0       0       0       0       0
  3324 ;;Total ram usage:        0 bytes
  3325 ;; Hardware stack levels used: 1
  3326 ;; Hardware stack levels required when called: 4
  3327 ;; This function calls:
  3328 ;;		Nothing
  3329 ;; This function is called by:
  3330 ;;		_main
  3331 ;; This function uses a non-reentrant model
  3332 ;;
  3333                           
  3334     012F                     _TMR1_StartTimer:	
  3335                           ;psect for function _TMR1_StartTimer
  3336                           
  3337     012F                     l1059:	
  3338                           ;incstack = 0
  3339                           ; Regs used in _TMR1_StartTimer: []
  3340                           
  3341                           
  3342                           ;mcc_generated_files/tmr1.c: 96:     T1CONbits.TMR1ON = 1;
  3343     012F  0020               	movlb	0	; select bank0
  3344     0130  141A               	bsf	26,0	;volatile
  3345     0131                     l171:
  3346     0131  0008               	return
  3347     0132                     __end_of_TMR1_StartTimer:
  3348                           
  3349                           	psect	text3
  3350     00F5                     __ptext3:	
  3351 ;; *************** function _SYSTEM_Initialize *****************
  3352 ;; Defined at:
  3353 ;;		line 50 in file "mcc_generated_files/mcc.c"
  3354 ;; Parameters:    Size  Location     Type
  3355 ;;		None
  3356 ;; Auto vars:     Size  Location     Type
  3357 ;;		None
  3358 ;; Return value:  Size  Location     Type
  3359 ;;                  1    wreg      void 
  3360 ;; Registers used:
  3361 ;;		wreg, status,2, status,0, pclath, cstack
  3362 ;; Tracked objects:
  3363 ;;		On entry : 0/0
  3364 ;;		On exit  : 0/0
  3365 ;;		Unchanged: 0/0
  3366 ;; Data sizes:     COMMON   BANK0   BANK1   BANK2   BANK3   BANK4   BANK5   BANK6   BANK7   BANK8   BANK9  BANK10  BANK1
      +1  BANK12  BANK13  BANK14  BANK15  BANK16  BANK17  BANK18  BANK19  BANK20  BANK21  BANK22  BANK23  BANK24  BANK25
  3367 ;;      Params:         0       0       0       0       0       0       0       0       0       0       0       0       
      +0       0       0       0       0       0       0       0       0       0       0       0       0       0       0
  3368 ;;      Locals:         0       0       0       0       0       0       0       0       0       0       0       0       
      +0       0       0       0       0       0       0       0       0       0       0       0       0       0       0
  3369 ;;      Temps:          0       0       0       0       0       0       0       0       0       0       0       0       
      +0       0       0       0       0       0       0       0       0       0       0       0       0       0       0
  3370 ;;      Totals:         0       0       0       0       0       0       0       0       0       0       0       0       
      +0       0       0       0       0       0       0       0       0       0       0       0       0       0       0
  3371 ;;Total ram usage:        0 bytes
  3372 ;; Hardware stack levels used: 1
  3373 ;; Hardware stack levels required when called: 6
  3374 ;; This function calls:
  3375 ;;		_OSCILLATOR_Initialize
  3376 ;;		_PIN_MANAGER_Initialize
  3377 ;;		_TMR1_Initialize
  3378 ;;		_WDT_Initialize
  3379 ;; This function is called by:
  3380 ;;		_main
  3381 ;; This function uses a non-reentrant model
  3382 ;;
  3383                           
  3384     00F5                     _SYSTEM_Initialize:	
  3385                           ;psect for function _SYSTEM_Initialize
  3386                           
  3387     00F5                     l1055:	
  3388                           ;incstack = 0
  3389                           ; Regs used in _SYSTEM_Initialize: [wreg+status,2+status,0+pclath+cstack]
  3390                           
  3391                           
  3392                           ;mcc_generated_files/mcc.c: 53:     PIN_MANAGER_Initialize();
  3393     00F5  3180  2081  3180   	fcall	_PIN_MANAGER_Initialize
  3394                           
  3395                           ;mcc_generated_files/mcc.c: 54:     OSCILLATOR_Initialize();
  3396     00F8  3181  211B  3180   	fcall	_OSCILLATOR_Initialize
  3397                           
  3398                           ;mcc_generated_files/mcc.c: 55:     WDT_Initialize();
  3399     00FB  3181  2128  3180   	fcall	_WDT_Initialize
  3400                           
  3401                           ;mcc_generated_files/mcc.c: 56:     TMR1_Initialize();
  3402     00FE  3180  20CC  3180   	fcall	_TMR1_Initialize
  3403     0101                     l62:
  3404     0101  0008               	return
  3405     0102                     __end_of_SYSTEM_Initialize:
  3406                           
  3407                           	psect	text4
  3408     0128                     __ptext4:	
  3409 ;; *************** function _WDT_Initialize *****************
  3410 ;; Defined at:
  3411 ;;		line 71 in file "mcc_generated_files/mcc.c"
  3412 ;; Parameters:    Size  Location     Type
  3413 ;;		None
  3414 ;; Auto vars:     Size  Location     Type
  3415 ;;		None
  3416 ;; Return value:  Size  Location     Type
  3417 ;;                  1    wreg      void 
  3418 ;; Registers used:
  3419 ;;		wreg
  3420 ;; Tracked objects:
  3421 ;;		On entry : 0/0
  3422 ;;		On exit  : 0/0
  3423 ;;		Unchanged: 0/0
  3424 ;; Data sizes:     COMMON   BANK0   BANK1   BANK2   BANK3   BANK4   BANK5   BANK6   BANK7   BANK8   BANK9  BANK10  BANK1
      +1  BANK12  BANK13  BANK14  BANK15  BANK16  BANK17  BANK18  BANK19  BANK20  BANK21  BANK22  BANK23  BANK24  BANK25
  3425 ;;      Params:         0       0       0       0       0       0       0       0       0       0       0       0       
      +0       0       0       0       0       0       0       0       0       0       0       0       0       0       0
  3426 ;;      Locals:         0       0       0       0       0       0       0       0       0       0       0       0       
      +0       0       0       0       0       0       0       0       0       0       0       0       0       0       0
  3427 ;;      Temps:          0       0       0       0       0       0       0       0       0       0       0       0       
      +0       0       0       0       0       0       0       0       0       0       0       0       0       0       0
  3428 ;;      Totals:         0       0       0       0       0       0       0       0       0       0       0       0       
      +0       0       0       0       0       0       0       0       0       0       0       0       0       0       0
  3429 ;;Total ram usage:        0 bytes
  3430 ;; Hardware stack levels used: 1
  3431 ;; Hardware stack levels required when called: 4
  3432 ;; This function calls:
  3433 ;;		Nothing
  3434 ;; This function is called by:
  3435 ;;		_SYSTEM_Initialize
  3436 ;; This function uses a non-reentrant model
  3437 ;;
  3438                           
  3439     0128                     _WDT_Initialize:	
  3440                           ;psect for function _WDT_Initialize
  3441                           
  3442     0128                     l1037:	
  3443                           ;incstack = 0
  3444                           ; Regs used in _WDT_Initialize: [wreg]
  3445                           
  3446                           
  3447                           ;mcc_generated_files/mcc.c: 74:     WDTCON = 0x16;
  3448     0128  3016               	movlw	22
  3449     0129  0021               	movlb	1	; select bank1
  3450     012A  0099               	movwf	25	;volatile
  3451     012B                     l68:
  3452     012B  0008               	return
  3453     012C                     __end_of_WDT_Initialize:
  3454                           
  3455                           	psect	text5
  3456     00CC                     __ptext5:	
  3457 ;; *************** function _TMR1_Initialize *****************
  3458 ;; Defined at:
  3459 ;;		line 64 in file "mcc_generated_files/tmr1.c"
  3460 ;; Parameters:    Size  Location     Type
  3461 ;;		None
  3462 ;; Auto vars:     Size  Location     Type
  3463 ;;		None
  3464 ;; Return value:  Size  Location     Type
  3465 ;;                  1    wreg      void 
  3466 ;; Registers used:
  3467 ;;		wreg, status,2, status,0, pclath, cstack
  3468 ;; Tracked objects:
  3469 ;;		On entry : 0/0
  3470 ;;		On exit  : 0/0
  3471 ;;		Unchanged: 0/0
  3472 ;; Data sizes:     COMMON   BANK0   BANK1   BANK2   BANK3   BANK4   BANK5   BANK6   BANK7   BANK8   BANK9  BANK10  BANK1
      +1  BANK12  BANK13  BANK14  BANK15  BANK16  BANK17  BANK18  BANK19  BANK20  BANK21  BANK22  BANK23  BANK24  BANK25
  3473 ;;      Params:         0       0       0       0       0       0       0       0       0       0       0       0       
      +0       0       0       0       0       0       0       0       0       0       0       0       0       0       0
  3474 ;;      Locals:         0       0       0       0       0       0       0       0       0       0       0       0       
      +0       0       0       0       0       0       0       0       0       0       0       0       0       0       0
  3475 ;;      Temps:          0       0       0       0       0       0       0       0       0       0       0       0       
      +0       0       0       0       0       0       0       0       0       0       0       0       0       0       0
  3476 ;;      Totals:         0       0       0       0       0       0       0       0       0       0       0       0       
      +0       0       0       0       0       0       0       0       0       0       0       0       0       0       0
  3477 ;;Total ram usage:        0 bytes
  3478 ;; Hardware stack levels used: 1
  3479 ;; Hardware stack levels required when called: 5
  3480 ;; This function calls:
  3481 ;;		_TMR1_SetInterruptHandler
  3482 ;; This function is called by:
  3483 ;;		_SYSTEM_Initialize
  3484 ;; This function uses a non-reentrant model
  3485 ;;
  3486                           
  3487     00CC                     _TMR1_Initialize:	
  3488                           ;psect for function _TMR1_Initialize
  3489                           
  3490     00CC                     l1039:	
  3491                           ;incstack = 0
  3492                           ; Regs used in _TMR1_Initialize: [wreg+status,2+status,0+pclath+cstack]
  3493                           
  3494                           
  3495                           ;mcc_generated_files/tmr1.c: 69:     T1GCON = 0x00;
  3496     00CC  0020               	movlb	0	; select bank0
  3497     00CD  019B               	clrf	27	;volatile
  3498     00CE                     l1041:
  3499                           
  3500                           ;mcc_generated_files/tmr1.c: 72:     TMR1H = 0x9E;
  3501     00CE  309E               	movlw	158
  3502     00CF  0099               	movwf	25	;volatile
  3503     00D0                     l1043:
  3504                           
  3505                           ;mcc_generated_files/tmr1.c: 75:     TMR1L = 0x58;
  3506     00D0  3058               	movlw	88
  3507     00D1  0098               	movwf	24	;volatile
  3508     00D2                     l1045:
  3509                           
  3510                           ;mcc_generated_files/tmr1.c: 78:     PIR1bits.TMR1IF = 0;
  3511     00D2  1011               	bcf	17,0	;volatile
  3512     00D3                     l1047:
  3513                           
  3514                           ;mcc_generated_files/tmr1.c: 81:     timer1ReloadVal=(uint16_t)((TMR1H << 8) | TMR1L);
  3515     00D3  0819               	movf	25,w	;volatile
  3516     00D4  00F8               	movwf	_timer1ReloadVal+1	;volatile
  3517     00D5  0818               	movf	24,w	;volatile
  3518     00D6  00F7               	movwf	_timer1ReloadVal	;volatile
  3519     00D7                     l1049:
  3520                           
  3521                           ;mcc_generated_files/tmr1.c: 84:     PIE1bits.TMR1IE = 1;
  3522     00D7  0021               	movlb	1	; select bank1
  3523     00D8  1411               	bsf	17,0	;volatile
  3524     00D9                     l1051:
  3525                           
  3526                           ;mcc_generated_files/tmr1.c: 87:     TMR1_SetInterruptHandler(TMR1_DefaultInterruptHandl
      +                          er);
  3527     00D9  3032               	movlw	low _TMR1_DefaultInterruptHandler
  3528     00DA  00F2               	movwf	TMR1_SetInterruptHandler@InterruptHandler
  3529     00DB  3001               	movlw	high _TMR1_DefaultInterruptHandler
  3530     00DC  00F3               	movwf	TMR1_SetInterruptHandler@InterruptHandler+1
  3531     00DD  3181  2123  3180   	fcall	_TMR1_SetInterruptHandler
  3532     00E0                     l1053:
  3533                           
  3534                           ;mcc_generated_files/tmr1.c: 90:     T1CON = 0x31;
  3535     00E0  3031               	movlw	49
  3536     00E1  0020               	movlb	0	; select bank0
  3537     00E2  009A               	movwf	26	;volatile
  3538     00E3                     l168:
  3539     00E3  0008               	return
  3540     00E4                     __end_of_TMR1_Initialize:
  3541                           
  3542                           	psect	text6
  3543     0123                     __ptext6:	
  3544 ;; *************** function _TMR1_SetInterruptHandler *****************
  3545 ;; Defined at:
  3546 ;;		line 185 in file "mcc_generated_files/tmr1.c"
  3547 ;; Parameters:    Size  Location     Type
  3548 ;;  InterruptHan    2    2[COMMON] PTR FTN()void 
  3549 ;;		 -> TMR1_DefaultInterruptHandler(1), TMR1_interrupt(1), 
  3550 ;; Auto vars:     Size  Location     Type
  3551 ;;		None
  3552 ;; Return value:  Size  Location     Type
  3553 ;;                  1    wreg      void 
  3554 ;; Registers used:
  3555 ;;		wreg
  3556 ;; Tracked objects:
  3557 ;;		On entry : 0/0
  3558 ;;		On exit  : 0/0
  3559 ;;		Unchanged: 0/0
  3560 ;; Data sizes:     COMMON   BANK0   BANK1   BANK2   BANK3   BANK4   BANK5   BANK6   BANK7   BANK8   BANK9  BANK10  BANK1
      +1  BANK12  BANK13  BANK14  BANK15  BANK16  BANK17  BANK18  BANK19  BANK20  BANK21  BANK22  BANK23  BANK24  BANK25
  3561 ;;      Params:         2       0       0       0       0       0       0       0       0       0       0       0       
      +0       0       0       0       0       0       0       0       0       0       0       0       0       0       0
  3562 ;;      Locals:         0       0       0       0       0       0       0       0       0       0       0       0       
      +0       0       0       0       0       0       0       0       0       0       0       0       0       0       0
  3563 ;;      Temps:          0       0       0       0       0       0       0       0       0       0       0       0       
      +0       0       0       0       0       0       0       0       0       0       0       0       0       0       0
  3564 ;;      Totals:         2       0       0       0       0       0       0       0       0       0       0       0       
      +0       0       0       0       0       0       0       0       0       0       0       0       0       0       0
  3565 ;;Total ram usage:        2 bytes
  3566 ;; Hardware stack levels used: 1
  3567 ;; Hardware stack levels required when called: 4
  3568 ;; This function calls:
  3569 ;;		Nothing
  3570 ;; This function is called by:
  3571 ;;		_main
  3572 ;;		_TMR1_Initialize
  3573 ;; This function uses a non-reentrant model
  3574 ;;
  3575                           
  3576     0123                     _TMR1_SetInterruptHandler:	
  3577                           ;psect for function _TMR1_SetInterruptHandler
  3578                           
  3579     0123                     l987:	
  3580                           ;incstack = 0
  3581                           ; Regs used in _TMR1_SetInterruptHandler: [wreg]
  3582                           
  3583                           
  3584                           ;mcc_generated_files/tmr1.c: 186:     TMR1_InterruptHandler = InterruptHandler;
  3585     0123  0873               	movf	TMR1_SetInterruptHandler@InterruptHandler+1,w
  3586     0124  00F6               	movwf	_TMR1_InterruptHandler+1
  3587     0125  0872               	movf	TMR1_SetInterruptHandler@InterruptHandler,w
  3588     0126  00F5               	movwf	_TMR1_InterruptHandler
  3589     0127                     l204:
  3590     0127  0008               	return
  3591     0128                     __end_of_TMR1_SetInterruptHandler:
  3592                           
  3593                           	psect	text7
  3594     0081                     __ptext7:	
  3595 ;; *************** function _PIN_MANAGER_Initialize *****************
  3596 ;; Defined at:
  3597 ;;		line 55 in file "mcc_generated_files/pin_manager.c"
  3598 ;; Parameters:    Size  Location     Type
  3599 ;;		None
  3600 ;; Auto vars:     Size  Location     Type
  3601 ;;		None
  3602 ;; Return value:  Size  Location     Type
  3603 ;;                  1    wreg      void 
  3604 ;; Registers used:
  3605 ;;		wreg, status,2
  3606 ;; Tracked objects:
  3607 ;;		On entry : 0/0
  3608 ;;		On exit  : 0/0
  3609 ;;		Unchanged: 0/0
  3610 ;; Data sizes:     COMMON   BANK0   BANK1   BANK2   BANK3   BANK4   BANK5   BANK6   BANK7   BANK8   BANK9  BANK10  BANK1
      +1  BANK12  BANK13  BANK14  BANK15  BANK16  BANK17  BANK18  BANK19  BANK20  BANK21  BANK22  BANK23  BANK24  BANK25
  3611 ;;      Params:         0       0       0       0       0       0       0       0       0       0       0       0       
      +0       0       0       0       0       0       0       0       0       0       0       0       0       0       0
  3612 ;;      Locals:         0       0       0       0       0       0       0       0       0       0       0       0       
      +0       0       0       0       0       0       0       0       0       0       0       0       0       0       0
  3613 ;;      Temps:          0       0       0       0       0       0       0       0       0       0       0       0       
      +0       0       0       0       0       0       0       0       0       0       0       0       0       0       0
  3614 ;;      Totals:         0       0       0       0       0       0       0       0       0       0       0       0       
      +0       0       0       0       0       0       0       0       0       0       0       0       0       0       0
  3615 ;;Total ram usage:        0 bytes
  3616 ;; Hardware stack levels used: 1
  3617 ;; Hardware stack levels required when called: 4
  3618 ;; This function calls:
  3619 ;;		Nothing
  3620 ;; This function is called by:
  3621 ;;		_SYSTEM_Initialize
  3622 ;; This function uses a non-reentrant model
  3623 ;;
  3624                           
  3625     0081                     _PIN_MANAGER_Initialize:	
  3626                           ;psect for function _PIN_MANAGER_Initialize
  3627                           
  3628     0081                     l989:	
  3629                           ;incstack = 0
  3630                           ; Regs used in _PIN_MANAGER_Initialize: [wreg+status,2]
  3631                           
  3632                           
  3633                           ;mcc_generated_files/pin_manager.c: 60:     LATA = 0x00;
  3634     0081  0022               	movlb	2	; select bank2
  3635     0082  018C               	clrf	12	;volatile
  3636                           
  3637                           ;mcc_generated_files/pin_manager.c: 61:     LATB = 0x00;
  3638     0083  018D               	clrf	13	;volatile
  3639                           
  3640                           ;mcc_generated_files/pin_manager.c: 62:     LATC = 0x00;
  3641     0084  018E               	clrf	14	;volatile
  3642     0085                     l991:
  3643                           
  3644                           ;mcc_generated_files/pin_manager.c: 67:     TRISE = 0x08;
  3645     0085  3008               	movlw	8
  3646     0086  0021               	movlb	1	; select bank1
  3647     0087  0090               	movwf	16	;volatile
  3648     0088                     l993:
  3649                           
  3650                           ;mcc_generated_files/pin_manager.c: 68:     TRISA = 0xFF;
  3651     0088  30FF               	movlw	255
  3652     0089  008C               	movwf	12	;volatile
  3653     008A                     l995:
  3654                           
  3655                           ;mcc_generated_files/pin_manager.c: 69:     TRISB = 0xFB;
  3656     008A  30FB               	movlw	251
  3657     008B  008D               	movwf	13	;volatile
  3658     008C                     l997:
  3659                           
  3660                           ;mcc_generated_files/pin_manager.c: 70:     TRISC = 0xFF;
  3661     008C  30FF               	movlw	255
  3662     008D  008E               	movwf	14	;volatile
  3663     008E                     l999:
  3664                           
  3665                           ;mcc_generated_files/pin_manager.c: 75:     ANSELC = 0x7C;
  3666     008E  307C               	movlw	124
  3667     008F  0023               	movlb	3	; select bank3
  3668     0090  008E               	movwf	14	;volatile
  3669     0091                     l1001:
  3670                           
  3671                           ;mcc_generated_files/pin_manager.c: 76:     ANSELB = 0x3B;
  3672     0091  303B               	movlw	59
  3673     0092  008D               	movwf	13	;volatile
  3674     0093                     l1003:
  3675                           
  3676                           ;mcc_generated_files/pin_manager.c: 77:     ANSELA = 0x3F;
  3677     0093  303F               	movlw	63
  3678     0094  008C               	movwf	12	;volatile
  3679     0095                     l1005:
  3680                           
  3681                           ;mcc_generated_files/pin_manager.c: 82:     WPUE = 0x00;
  3682     0095  0024               	movlb	4	; select bank4
  3683     0096  0190               	clrf	16	;volatile
  3684     0097                     l1007:
  3685                           
  3686                           ;mcc_generated_files/pin_manager.c: 83:     WPUB = 0x00;
  3687     0097  018D               	clrf	13	;volatile
  3688     0098                     l1009:
  3689                           
  3690                           ;mcc_generated_files/pin_manager.c: 84:     WPUA = 0x00;
  3691     0098  018C               	clrf	12	;volatile
  3692                           
  3693                           ;mcc_generated_files/pin_manager.c: 85:     WPUC = 0x80;
  3694     0099  3080               	movlw	128
  3695     009A  008E               	movwf	14	;volatile
  3696     009B                     l1011:
  3697                           
  3698                           ;mcc_generated_files/pin_manager.c: 86:     OPTION_REGbits.nWPUEN = 0;
  3699     009B  0021               	movlb	1	; select bank1
  3700     009C  1397               	bcf	23,7	;volatile
  3701     009D                     l1013:
  3702                           
  3703                           ;mcc_generated_files/pin_manager.c: 91:     ODCONA = 0x00;
  3704     009D  0025               	movlb	5	; select bank5
  3705     009E  018C               	clrf	12	;volatile
  3706     009F                     l1015:
  3707                           
  3708                           ;mcc_generated_files/pin_manager.c: 92:     ODCONB = 0x00;
  3709     009F  018D               	clrf	13	;volatile
  3710     00A0                     l1017:
  3711                           
  3712                           ;mcc_generated_files/pin_manager.c: 93:     ODCONC = 0x00;
  3713     00A0  018E               	clrf	14	;volatile
  3714     00A1                     l1019:
  3715                           
  3716                           ;mcc_generated_files/pin_manager.c: 98:     SLRCONA = 0xFF;
  3717     00A1  30FF               	movlw	255
  3718     00A2  0026               	movlb	6	; select bank6
  3719     00A3  008C               	movwf	12	;volatile
  3720     00A4                     l1021:
  3721                           
  3722                           ;mcc_generated_files/pin_manager.c: 99:     SLRCONB = 0xFF;
  3723     00A4  30FF               	movlw	255
  3724     00A5  008D               	movwf	13	;volatile
  3725     00A6                     l1023:
  3726                           
  3727                           ;mcc_generated_files/pin_manager.c: 100:     SLRCONC = 0xFF;
  3728     00A6  30FF               	movlw	255
  3729     00A7  008E               	movwf	14	;volatile
  3730     00A8                     l1025:
  3731                           
  3732                           ;mcc_generated_files/pin_manager.c: 105:     INLVLA = 0x3F;
  3733     00A8  303F               	movlw	63
  3734     00A9  0027               	movlb	7	; select bank7
  3735     00AA  008C               	movwf	12	;volatile
  3736     00AB                     l1027:
  3737                           
  3738                           ;mcc_generated_files/pin_manager.c: 106:     INLVLB = 0xF0;
  3739     00AB  30F0               	movlw	240
  3740     00AC  008D               	movwf	13	;volatile
  3741     00AD                     l1029:
  3742                           
  3743                           ;mcc_generated_files/pin_manager.c: 107:     INLVLC = 0xFF;
  3744     00AD  30FF               	movlw	255
  3745     00AE  008E               	movwf	14	;volatile
  3746     00AF                     l136:
  3747     00AF  0008               	return
  3748     00B0                     __end_of_PIN_MANAGER_Initialize:
  3749                           
  3750                           	psect	text8
  3751     011B                     __ptext8:	
  3752 ;; *************** function _OSCILLATOR_Initialize *****************
  3753 ;; Defined at:
  3754 ;;		line 59 in file "mcc_generated_files/mcc.c"
  3755 ;; Parameters:    Size  Location     Type
  3756 ;;		None
  3757 ;; Auto vars:     Size  Location     Type
  3758 ;;		None
  3759 ;; Return value:  Size  Location     Type
  3760 ;;                  1    wreg      void 
  3761 ;; Registers used:
  3762 ;;		wreg, status,2
  3763 ;; Tracked objects:
  3764 ;;		On entry : 0/0
  3765 ;;		On exit  : 0/0
  3766 ;;		Unchanged: 0/0
  3767 ;; Data sizes:     COMMON   BANK0   BANK1   BANK2   BANK3   BANK4   BANK5   BANK6   BANK7   BANK8   BANK9  BANK10  BANK1
      +1  BANK12  BANK13  BANK14  BANK15  BANK16  BANK17  BANK18  BANK19  BANK20  BANK21  BANK22  BANK23  BANK24  BANK25
  3768 ;;      Params:         0       0       0       0       0       0       0       0       0       0       0       0       
      +0       0       0       0       0       0       0       0       0       0       0       0       0       0       0
  3769 ;;      Locals:         0       0       0       0       0       0       0       0       0       0       0       0       
      +0       0       0       0       0       0       0       0       0       0       0       0       0       0       0
  3770 ;;      Temps:          0       0       0       0       0       0       0       0       0       0       0       0       
      +0       0       0       0       0       0       0       0       0       0       0       0       0       0       0
  3771 ;;      Totals:         0       0       0       0       0       0       0       0       0       0       0       0       
      +0       0       0       0       0       0       0       0       0       0       0       0       0       0       0
  3772 ;;Total ram usage:        0 bytes
  3773 ;; Hardware stack levels used: 1
  3774 ;; Hardware stack levels required when called: 4
  3775 ;; This function calls:
  3776 ;;		Nothing
  3777 ;; This function is called by:
  3778 ;;		_SYSTEM_Initialize
  3779 ;; This function uses a non-reentrant model
  3780 ;;
  3781                           
  3782     011B                     _OSCILLATOR_Initialize:	
  3783                           ;psect for function _OSCILLATOR_Initialize
  3784                           
  3785     011B                     l1031:	
  3786                           ;incstack = 0
  3787                           ; Regs used in _OSCILLATOR_Initialize: [wreg+status,2]
  3788                           
  3789                           
  3790                           ;mcc_generated_files/mcc.c: 62:     OSCCON = 0x70;
  3791     011B  3070               	movlw	112
  3792     011C  0021               	movlb	1	; select bank1
  3793     011D  009B               	movwf	27	;volatile
  3794                           
  3795                           ;mcc_generated_files/mcc.c: 64:     OSCSTAT = 0x80;
  3796     011E  3080               	movlw	128
  3797     011F  009C               	movwf	28	;volatile
  3798     0120                     l1033:
  3799                           
  3800                           ;mcc_generated_files/mcc.c: 66:     OSCTUNE = 0x00;
  3801     0120  019A               	clrf	26	;volatile
  3802     0121                     l1035:
  3803                           
  3804                           ;mcc_generated_files/mcc.c: 68:     BORCON = 0x00;
  3805     0121  019D               	clrf	29	;volatile
  3806     0122                     l65:
  3807     0122  0008               	return
  3808     0123                     __end_of_OSCILLATOR_Initialize:
  3809                           
  3810                           	psect	intentry
  3811     0004                     __pintentry:	
  3812 ;; *************** function _INTERRUPT_InterruptManager *****************
  3813 ;; Defined at:
  3814 ;;		line 52 in file "mcc_generated_files/interrupt_manager.c"
  3815 ;; Parameters:    Size  Location     Type
  3816 ;;		None
  3817 ;; Auto vars:     Size  Location     Type
  3818 ;;		None
  3819 ;; Return value:  Size  Location     Type
  3820 ;;                  1    wreg      void 
  3821 ;; Registers used:
  3822 ;;		wreg, status,2, status,0, pclath, cstack
  3823 ;; Tracked objects:
  3824 ;;		On entry : 0/0
  3825 ;;		On exit  : 0/0
  3826 ;;		Unchanged: 0/0
  3827 ;; Data sizes:     COMMON   BANK0   BANK1   BANK2   BANK3   BANK4   BANK5   BANK6   BANK7   BANK8   BANK9  BANK10  BANK1
      +1  BANK12  BANK13  BANK14  BANK15  BANK16  BANK17  BANK18  BANK19  BANK20  BANK21  BANK22  BANK23  BANK24  BANK25
  3828 ;;      Params:         0       0       0       0       0       0       0       0       0       0       0       0       
      +0       0       0       0       0       0       0       0       0       0       0       0       0       0       0
  3829 ;;      Locals:         0       0       0       0       0       0       0       0       0       0       0       0       
      +0       0       0       0       0       0       0       0       0       0       0       0       0       0       0
  3830 ;;      Temps:          0       0       0       0       0       0       0       0       0       0       0       0       
      +0       0       0       0       0       0       0       0       0       0       0       0       0       0       0
  3831 ;;      Totals:         0       0       0       0       0       0       0       0       0       0       0       0       
      +0       0       0       0       0       0       0       0       0       0       0       0       0       0       0
  3832 ;;Total ram usage:        0 bytes
  3833 ;; Hardware stack levels used: 1
  3834 ;; Hardware stack levels required when called: 3
  3835 ;; This function calls:
  3836 ;;		_TMR1_ISR
  3837 ;; This function is called by:
  3838 ;;		Interrupt level 1
  3839 ;; This function uses a non-reentrant model
  3840 ;;
  3841                           
  3842     0004                     _INTERRUPT_InterruptManager:
  3843                           
  3844                           ;incstack = 0
  3845     0004  147E               	bsf	int$flags,0	;set compiler interrupt flag (level 1)
  3846                           
  3847                           ; Regs used in _INTERRUPT_InterruptManager: [wreg+status,2+status,0+pclath+cstack]
  3848     0005  3180               	pagesel	$
  3849     0006                     i1l977:
  3850                           
  3851                           ;mcc_generated_files/interrupt_manager.c: 55:     if(INTCONbits.PEIE == 1)
  3852     0006  1F0B               	btfss	11,6	;volatile
  3853     0007  2809               	goto	u23_21
  3854     0008  280A               	goto	u23_20
  3855     0009                     u23_21:
  3856     0009  2817               	goto	i1l85
  3857     000A                     u23_20:
  3858     000A                     i1l979:
  3859                           
  3860                           ;mcc_generated_files/interrupt_manager.c: 56:     {;mcc_generated_files/interrupt_manage
      +                          r.c: 57:         if(PIE1bits.TMR1IE == 1 && PIR1bits.TMR1IF == 1)
  3861     000A  0021               	movlb	1	; select bank1
  3862     000B  1C11               	btfss	17,0	;volatile
  3863     000C  280E               	goto	u24_21
  3864     000D  280F               	goto	u24_20
  3865     000E                     u24_21:
  3866     000E  2817               	goto	i1l85
  3867     000F                     u24_20:
  3868     000F                     i1l981:
  3869     000F  0020               	movlb	0	; select bank0
  3870     0010  1C11               	btfss	17,0	;volatile
  3871     0011  2813               	goto	u25_21
  3872     0012  2814               	goto	u25_20
  3873     0013                     u25_21:
  3874     0013  2817               	goto	i1l85
  3875     0014                     u25_20:
  3876     0014                     i1l983:
  3877                           
  3878                           ;mcc_generated_files/interrupt_manager.c: 58:         {;mcc_generated_files/interrupt_ma
      +                          nager.c: 59:             TMR1_ISR();
  3879     0014  3180  20B0  3180   	fcall	_TMR1_ISR
  3880     0017                     i1l85:	
  3881                           ;mcc_generated_files/interrupt_manager.c: 60:         }
  3882                           
  3883     0017  107E               	bcf	int$flags,0	;clear compiler interrupt flag (level 1)
  3884     0018  0009               	retfie
  3885     0019                     __end_of_INTERRUPT_InterruptManager:
  3886                           
  3887                           	psect	text10
  3888     00B0                     __ptext10:	
  3889 ;; *************** function _TMR1_ISR *****************
  3890 ;; Defined at:
  3891 ;;		line 157 in file "mcc_generated_files/tmr1.c"
  3892 ;; Parameters:    Size  Location     Type
  3893 ;;		None
  3894 ;; Auto vars:     Size  Location     Type
  3895 ;;		None
  3896 ;; Return value:  Size  Location     Type
  3897 ;;                  1    wreg      void 
  3898 ;; Registers used:
  3899 ;;		wreg, status,2, status,0, pclath, cstack
  3900 ;; Tracked objects:
  3901 ;;		On entry : 0/0
  3902 ;;		On exit  : 0/0
  3903 ;;		Unchanged: 0/0
  3904 ;; Data sizes:     COMMON   BANK0   BANK1   BANK2   BANK3   BANK4   BANK5   BANK6   BANK7   BANK8   BANK9  BANK10  BANK1
      +1  BANK12  BANK13  BANK14  BANK15  BANK16  BANK17  BANK18  BANK19  BANK20  BANK21  BANK22  BANK23  BANK24  BANK25
  3905 ;;      Params:         0       0       0       0       0       0       0       0       0       0       0       0       
      +0       0       0       0       0       0       0       0       0       0       0       0       0       0       0
  3906 ;;      Locals:         0       0       0       0       0       0       0       0       0       0       0       0       
      +0       0       0       0       0       0       0       0       0       0       0       0       0       0       0
  3907 ;;      Temps:          0       0       0       0       0       0       0       0       0       0       0       0       
      +0       0       0       0       0       0       0       0       0       0       0       0       0       0       0
  3908 ;;      Totals:         0       0       0       0       0       0       0       0       0       0       0       0       
      +0       0       0       0       0       0       0       0       0       0       0       0       0       0       0
  3909 ;;Total ram usage:        0 bytes
  3910 ;; Hardware stack levels used: 1
  3911 ;; Hardware stack levels required when called: 2
  3912 ;; This function calls:
  3913 ;;		_TMR1_CallBack
  3914 ;;		_TMR1_WriteTimer
  3915 ;; This function is called by:
  3916 ;;		_INTERRUPT_InterruptManager
  3917 ;; This function uses a non-reentrant model
  3918 ;;
  3919                           
  3920     00B0                     _TMR1_ISR:	
  3921                           ;psect for function _TMR1_ISR
  3922                           
  3923     00B0                     i1l929:	
  3924                           ;incstack = 0
  3925                           ; Regs used in _TMR1_ISR: [wreg+status,2+status,0+pclath+cstack]
  3926                           
  3927                           
  3928                           ;mcc_generated_files/tmr1.c: 159:     static volatile unsigned int CountCallBack = 0;;mc
      +                          c_generated_files/tmr1.c: 162:     PIR1bits.TMR1IF = 0;
  3929     00B0  0020               	movlb	0	; select bank0
  3930     00B1  1011               	bcf	17,0	;volatile
  3931     00B2                     i1l931:
  3932                           
  3933                           ;mcc_generated_files/tmr1.c: 163:     TMR1_WriteTimer(timer1ReloadVal);
  3934     00B2  0878               	movf	_timer1ReloadVal+1,w	;volatile
  3935     00B3  00F1               	movwf	TMR1_WriteTimer@timerVal+1
  3936     00B4  0877               	movf	_timer1ReloadVal,w	;volatile
  3937     00B5  00F0               	movwf	TMR1_WriteTimer@timerVal
  3938     00B6  3180  20E4  3180   	fcall	_TMR1_WriteTimer
  3939     00B9                     i1l933:
  3940                           
  3941                           ;mcc_generated_files/tmr1.c: 166:     if (++CountCallBack >= 10)
  3942     00B9  3001               	movlw	1
  3943     00BA  07F9               	addwf	TMR1_ISR@CountCallBack,f	;volatile
  3944     00BB  3000               	movlw	0
  3945     00BC  3DFA               	addwfc	TMR1_ISR@CountCallBack+1,f	;volatile
  3946     00BD  3000               	movlw	0
  3947     00BE  027A               	subwf	TMR1_ISR@CountCallBack+1,w	;volatile
  3948     00BF  300A               	movlw	10
  3949     00C0  1903               	skipnz
  3950     00C1  0279               	subwf	TMR1_ISR@CountCallBack,w	;volatile
  3951     00C2  1C03               	skipc
  3952     00C3  28C5               	goto	u16_21
  3953     00C4  28C6               	goto	u16_20
  3954     00C5                     u16_21:
  3955     00C5  28CB               	goto	i1l197
  3956     00C6                     u16_20:
  3957     00C6                     i1l935:
  3958                           
  3959                           ;mcc_generated_files/tmr1.c: 167:     {;mcc_generated_files/tmr1.c: 169:         TMR1_Ca
      +                          llBack();
  3960     00C6  3181  210F  3180   	fcall	_TMR1_CallBack
  3961     00C9                     i1l937:
  3962                           
  3963                           ;mcc_generated_files/tmr1.c: 172:         CountCallBack = 0;
  3964     00C9  01F9               	clrf	TMR1_ISR@CountCallBack	;volatile
  3965     00CA  01FA               	clrf	TMR1_ISR@CountCallBack+1	;volatile
  3966     00CB                     i1l197:
  3967     00CB  0008               	return
  3968     00CC                     __end_of_TMR1_ISR:
  3969                           
  3970                           	psect	text11
  3971     00E4                     __ptext11:	
  3972 ;; *************** function _TMR1_WriteTimer *****************
  3973 ;; Defined at:
  3974 ;;		line 120 in file "mcc_generated_files/tmr1.c"
  3975 ;; Parameters:    Size  Location     Type
  3976 ;;  timerVal        2    0[COMMON] unsigned short 
  3977 ;; Auto vars:     Size  Location     Type
  3978 ;;		None
  3979 ;; Return value:  Size  Location     Type
  3980 ;;                  1    wreg      void 
  3981 ;; Registers used:
  3982 ;;		wreg, status,2
  3983 ;; Tracked objects:
  3984 ;;		On entry : 0/0
  3985 ;;		On exit  : 0/0
  3986 ;;		Unchanged: 0/0
  3987 ;; Data sizes:     COMMON   BANK0   BANK1   BANK2   BANK3   BANK4   BANK5   BANK6   BANK7   BANK8   BANK9  BANK10  BANK1
      +1  BANK12  BANK13  BANK14  BANK15  BANK16  BANK17  BANK18  BANK19  BANK20  BANK21  BANK22  BANK23  BANK24  BANK25
  3988 ;;      Params:         2       0       0       0       0       0       0       0       0       0       0       0       
      +0       0       0       0       0       0       0       0       0       0       0       0       0       0       0
  3989 ;;      Locals:         0       0       0       0       0       0       0       0       0       0       0       0       
      +0       0       0       0       0       0       0       0       0       0       0       0       0       0       0
  3990 ;;      Temps:          0       0       0       0       0       0       0       0       0       0       0       0       
      +0       0       0       0       0       0       0       0       0       0       0       0       0       0       0
  3991 ;;      Totals:         2       0       0       0       0       0       0       0       0       0       0       0       
      +0       0       0       0       0       0       0       0       0       0       0       0       0       0       0
  3992 ;;Total ram usage:        2 bytes
  3993 ;; Hardware stack levels used: 1
  3994 ;; This function calls:
  3995 ;;		Nothing
  3996 ;; This function is called by:
  3997 ;;		_TMR1_ISR
  3998 ;;		_TMR1_Reload
  3999 ;; This function uses a non-reentrant model
  4000 ;;
  4001                           
  4002     00E4                     _TMR1_WriteTimer:	
  4003                           ;psect for function _TMR1_WriteTimer
  4004                           
  4005     00E4                     i1l913:	
  4006                           ;incstack = 0
  4007                           ; Regs used in _TMR1_WriteTimer: [wreg+status,2]
  4008                           
  4009                           
  4010                           ;mcc_generated_files/tmr1.c: 120: void TMR1_WriteTimer(uint16_t timerVal);mcc_generated_
      +                          files/tmr1.c: 121: {;mcc_generated_files/tmr1.c: 122:     if (T1CONbits.nT1SYNC == 1)
  4011     00E4  0020               	movlb	0	; select bank0
  4012     00E5  1D1A               	btfss	26,2	;volatile
  4013     00E6  28E8               	goto	u15_21
  4014     00E7  28E9               	goto	u15_20
  4015     00E8                     u15_21:
  4016     00E8  28F0               	goto	i1l923
  4017     00E9                     u15_20:
  4018     00E9                     i1l915:
  4019                           
  4020                           ;mcc_generated_files/tmr1.c: 123:     {;mcc_generated_files/tmr1.c: 125:         T1CONbi
      +                          ts.TMR1ON = 0;
  4021     00E9  101A               	bcf	26,0	;volatile
  4022     00EA                     i1l917:
  4023                           
  4024                           ;mcc_generated_files/tmr1.c: 128:         TMR1H = (uint8_t)(timerVal >> 8);
  4025     00EA  0871               	movf	TMR1_WriteTimer@timerVal+1,w
  4026     00EB  0099               	movwf	25	;volatile
  4027     00EC                     i1l919:
  4028                           
  4029                           ;mcc_generated_files/tmr1.c: 129:         TMR1L = (uint8_t)timerVal;
  4030     00EC  0870               	movf	TMR1_WriteTimer@timerVal,w
  4031     00ED  0098               	movwf	24	;volatile
  4032     00EE                     i1l921:
  4033                           
  4034                           ;mcc_generated_files/tmr1.c: 132:         T1CONbits.TMR1ON =1;
  4035     00EE  141A               	bsf	26,0	;volatile
  4036                           
  4037                           ;mcc_generated_files/tmr1.c: 133:     }
  4038     00EF  28F4               	goto	i1l182
  4039     00F0                     i1l923:
  4040                           
  4041                           ;mcc_generated_files/tmr1.c: 135:     {;mcc_generated_files/tmr1.c: 137:         TMR1H =
      +                           (uint8_t)(timerVal >> 8);
  4042     00F0  0871               	movf	TMR1_WriteTimer@timerVal+1,w
  4043     00F1  0099               	movwf	25	;volatile
  4044     00F2                     i1l925:
  4045                           
  4046                           ;mcc_generated_files/tmr1.c: 138:         TMR1L = (uint8_t)timerVal;
  4047     00F2  0870               	movf	TMR1_WriteTimer@timerVal,w
  4048     00F3  0098               	movwf	24	;volatile
  4049     00F4                     i1l182:
  4050     00F4  0008               	return
  4051     00F5                     __end_of_TMR1_WriteTimer:
  4052                           
  4053                           	psect	text12
  4054     010F                     __ptext12:	
  4055 ;; *************** function _TMR1_CallBack *****************
  4056 ;; Defined at:
  4057 ;;		line 176 in file "mcc_generated_files/tmr1.c"
  4058 ;; Parameters:    Size  Location     Type
  4059 ;;		None
  4060 ;; Auto vars:     Size  Location     Type
  4061 ;;		None
  4062 ;; Return value:  Size  Location     Type
  4063 ;;                  1    wreg      void 
  4064 ;; Registers used:
  4065 ;;		wreg, status,2, status,0, pclath, cstack
  4066 ;; Tracked objects:
  4067 ;;		On entry : 0/0
  4068 ;;		On exit  : 0/0
  4069 ;;		Unchanged: 0/0
  4070 ;; Data sizes:     COMMON   BANK0   BANK1   BANK2   BANK3   BANK4   BANK5   BANK6   BANK7   BANK8   BANK9  BANK10  BANK1
      +1  BANK12  BANK13  BANK14  BANK15  BANK16  BANK17  BANK18  BANK19  BANK20  BANK21  BANK22  BANK23  BANK24  BANK25
  4071 ;;      Params:         0       0       0       0       0       0       0       0       0       0       0       0       
      +0       0       0       0       0       0       0       0       0       0       0       0       0       0       0
  4072 ;;      Locals:         0       0       0       0       0       0       0       0       0       0       0       0       
      +0       0       0       0       0       0       0       0       0       0       0       0       0       0       0
  4073 ;;      Temps:          0       0       0       0       0       0       0       0       0       0       0       0       
      +0       0       0       0       0       0       0       0       0       0       0       0       0       0       0
  4074 ;;      Totals:         0       0       0       0       0       0       0       0       0       0       0       0       
      +0       0       0       0       0       0       0       0       0       0       0       0       0       0       0
  4075 ;;Total ram usage:        0 bytes
  4076 ;; Hardware stack levels used: 1
  4077 ;; Hardware stack levels required when called: 1
  4078 ;; This function calls:
  4079 ;;		Absolute function
  4080 ;;		_TMR1_DefaultInterruptHandler
  4081 ;;		_TMR1_interrupt
  4082 ;; This function is called by:
  4083 ;;		_TMR1_ISR
  4084 ;; This function uses a non-reentrant model
  4085 ;;
  4086                           
  4087     010F                     _TMR1_CallBack:	
  4088                           ;psect for function _TMR1_CallBack
  4089                           
  4090     010F                     i1l817:	
  4091                           ;incstack = 0
  4092                           ; Regs used in _TMR1_CallBack: [wreg+status,2+status,0+pclath+cstack]
  4093                           
  4094                           
  4095                           ;mcc_generated_files/tmr1.c: 179:     if(TMR1_InterruptHandler)
  4096     010F  0875               	movf	_TMR1_InterruptHandler,w
  4097     0110  0476               	iorwf	_TMR1_InterruptHandler+1,w
  4098     0111  1903               	btfsc	3,2
  4099     0112  2914               	goto	u4_21
  4100     0113  2915               	goto	u4_20
  4101     0114                     u4_21:
  4102     0114  291A               	goto	i1l201
  4103     0115                     u4_20:
  4104     0115                     i1l819:
  4105                           
  4106                           ;mcc_generated_files/tmr1.c: 180:     {;mcc_generated_files/tmr1.c: 181:         TMR1_In
      +                          terruptHandler();
  4107     0115  0876               	movf	_TMR1_InterruptHandler+1,w
  4108     0116  008A               	movwf	10
  4109     0117  0875               	movf	_TMR1_InterruptHandler,w
  4110     0118  000A               	callw
  4111     0119  3181               	pagesel	$
  4112     011A                     i1l201:
  4113     011A  0008               	return
  4114     011B                     __end_of_TMR1_CallBack:
  4115                           
  4116                           	psect	text13
  4117     0132                     __ptext13:	
  4118 ;; *************** function _TMR1_DefaultInterruptHandler *****************
  4119 ;; Defined at:
  4120 ;;		line 189 in file "mcc_generated_files/tmr1.c"
  4121 ;; Parameters:    Size  Location     Type
  4122 ;;		None
  4123 ;; Auto vars:     Size  Location     Type
  4124 ;;		None
  4125 ;; Return value:  Size  Location     Type
  4126 ;;                  1    wreg      void 
  4127 ;; Registers used:
  4128 ;;		None
  4129 ;; Tracked objects:
  4130 ;;		On entry : 0/0
  4131 ;;		On exit  : 0/0
  4132 ;;		Unchanged: 0/0
  4133 ;; Data sizes:     COMMON   BANK0   BANK1   BANK2   BANK3   BANK4   BANK5   BANK6   BANK7   BANK8   BANK9  BANK10  BANK1
      +1  BANK12  BANK13  BANK14  BANK15  BANK16  BANK17  BANK18  BANK19  BANK20  BANK21  BANK22  BANK23  BANK24  BANK25
  4134 ;;      Params:         0       0       0       0       0       0       0       0       0       0       0       0       
      +0       0       0       0       0       0       0       0       0       0       0       0       0       0       0
  4135 ;;      Locals:         0       0       0       0       0       0       0       0       0       0       0       0       
      +0       0       0       0       0       0       0       0       0       0       0       0       0       0       0
  4136 ;;      Temps:          0       0       0       0       0       0       0       0       0       0       0       0       
      +0       0       0       0       0       0       0       0       0       0       0       0       0       0       0
  4137 ;;      Totals:         0       0       0       0       0       0       0       0       0       0       0       0       
      +0       0       0       0       0       0       0       0       0       0       0       0       0       0       0
  4138 ;;Total ram usage:        0 bytes
  4139 ;; Hardware stack levels used: 1
  4140 ;; This function calls:
  4141 ;;		Nothing
  4142 ;; This function is called by:
  4143 ;;		_TMR1_Initialize
  4144 ;;		_TMR1_CallBack
  4145 ;; This function uses a non-reentrant model
  4146 ;;
  4147                           
  4148     0132                     _TMR1_DefaultInterruptHandler:	
  4149                           ;psect for function _TMR1_DefaultInterruptHandler
  4150                           
  4151     0132                     i1l207:	
  4152                           ;incstack = 0
  4153                           ; Regs used in _TMR1_DefaultInterruptHandler: []
  4154                           
  4155     0132  0008               	return
  4156     0133                     __end_of_TMR1_DefaultInterruptHandler:
  4157                           
  4158                           	psect	text14
  4159     0102                     __ptext14:	
  4160 ;; *************** function _TMR1_interrupt *****************
  4161 ;; Defined at:
  4162 ;;		line 105 in file "main.c"
  4163 ;; Parameters:    Size  Location     Type
  4164 ;;		None
  4165 ;; Auto vars:     Size  Location     Type
  4166 ;;		None
  4167 ;; Return value:  Size  Location     Type
  4168 ;;                  1    wreg      void 
  4169 ;; Registers used:
  4170 ;;		status,0
  4171 ;; Tracked objects:
  4172 ;;		On entry : 0/0
  4173 ;;		On exit  : 0/0
  4174 ;;		Unchanged: 0/0
  4175 ;; Data sizes:     COMMON   BANK0   BANK1   BANK2   BANK3   BANK4   BANK5   BANK6   BANK7   BANK8   BANK9  BANK10  BANK1
      +1  BANK12  BANK13  BANK14  BANK15  BANK16  BANK17  BANK18  BANK19  BANK20  BANK21  BANK22  BANK23  BANK24  BANK25
  4176 ;;      Params:         0       0       0       0       0       0       0       0       0       0       0       0       
      +0       0       0       0       0       0       0       0       0       0       0       0       0       0       0
  4177 ;;      Locals:         0       0       0       0       0       0       0       0       0       0       0       0       
      +0       0       0       0       0       0       0       0       0       0       0       0       0       0       0
  4178 ;;      Temps:          0       0       0       0       0       0       0       0       0       0       0       0       
      +0       0       0       0       0       0       0       0       0       0       0       0       0       0       0
  4179 ;;      Totals:         0       0       0       0       0       0       0       0       0       0       0       0       
      +0       0       0       0       0       0       0       0       0       0       0       0       0       0       0
  4180 ;;Total ram usage:        0 bytes
  4181 ;; Hardware stack levels used: 1
  4182 ;; This function calls:
  4183 ;;		Nothing
  4184 ;; This function is called by:
  4185 ;;		_main
  4186 ;;		_TMR1_CallBack
  4187 ;; This function uses a non-reentrant model
  4188 ;;
  4189                           
  4190     0102                     _TMR1_interrupt:	
  4191                           ;psect for function _TMR1_interrupt
  4192                           
  4193     0102                     i1l39:	
  4194                           ;incstack = 0
  4195                           ; Regs used in _TMR1_interrupt: [status,0]
  4196                           ;main.c: 107:     do { LATBbits.LATB2 = ~LATBbits.LATB2; } while(0);
  4197                           
  4198     0102                     i1l735:
  4199     0102  1003               	clrc
  4200     0103  0022               	movlb	2	; select bank2
  4201     0104  1D0D               	btfss	13,2	;volatile
  4202     0105  1403               	setc
  4203     0106  1803               	btfsc	3,0
  4204     0107  2909               	goto	u1_21
  4205     0108  290C               	goto	u1_20
  4206     0109                     u1_21:
  4207     0109  0022               	movlb	2	; select bank2
  4208     010A  150D               	bsf	13,2	;volatile
  4209     010B  290E               	goto	u2_24
  4210     010C                     u1_20:
  4211     010C  0022               	movlb	2	; select bank2
  4212     010D  110D               	bcf	13,2	;volatile
  4213     010E                     u2_24:
  4214     010E                     i1l41:
  4215     010E  0008               	return
  4216     010F                     __end_of_TMR1_interrupt:
  4217     007E                     btemp	set	126	;btemp
  4218     007E                     int$flags	set	126
  4219     007E                     wtemp0	set	126
  4220                           
  4221                           	psect	idloc
  4222                           
  4223                           ;Config register IDLOC0 @ 0x8000
  4224                           ;	unspecified, using default values
  4225     8000                     	org	32768
  4226     8000  3FFF               	dw	16383
  4227                           
  4228                           ;Config register IDLOC1 @ 0x8001
  4229                           ;	unspecified, using default values
  4230     8001                     	org	32769
  4231     8001  3FFF               	dw	16383
  4232                           
  4233                           ;Config register IDLOC2 @ 0x8002
  4234                           ;	unspecified, using default values
  4235     8002                     	org	32770
  4236     8002  3FFF               	dw	16383
  4237                           
  4238                           ;Config register IDLOC3 @ 0x8003
  4239                           ;	unspecified, using default values
  4240     8003                     	org	32771
  4241     8003  3FFF               	dw	16383
  4242                           
  4243                           	psect	config
  4244                           
  4245                           ;Config register CONFIG1 @ 0x8007
  4246                           ;	Oscillator Selection Bits
  4247                           ;	FOSC = INTOSC, INTOSC oscillator: I/O function on CLKIN pin
  4248                           ;	Watchdog Timer Enable
  4249                           ;	WDTE = OFF, WDT disabled
  4250                           ;	Power-up Timer Enable
  4251                           ;	PWRTE = OFF, PWRT disabled
  4252                           ;	MCLR Pin Function Select
  4253                           ;	MCLRE = ON, MCLR/VPP pin function is MCLR
  4254                           ;	Flash Program Memory Code Protection
  4255                           ;	CP = OFF, Program memory code protection is disabled
  4256                           ;	Brown-out Reset Enable
  4257                           ;	BOREN = ON, Brown-out Reset enabled
  4258                           ;	Clock Out Enable
  4259                           ;	CLKOUTEN = OFF, CLKOUT function is disabled. I/O or oscillator function on the CLKOUT 
      +                          pin
  4260                           ;	Internal/External Switchover Mode
  4261                           ;	IESO = ON, Internal/External Switchover Mode is enabled
  4262                           ;	Fail-Safe Clock Monitor Enable
  4263                           ;	FCMEN = ON, Fail-Safe Clock Monitor is enabled
  4264     8007                     	org	32775
  4265     8007  3FE4               	dw	16356
  4266                           
  4267                           ;Config register CONFIG2 @ 0x8008
  4268                           ;	Flash Memory Self-Write Protection
  4269                           ;	WRT = OFF, Write protection off
  4270                           ;	Peripheral Pin Select one-way control
  4271                           ;	PPS1WAY = ON, The PPSLOCK bit cannot be cleared once it is set by software
  4272                           ;	Zero-cross detect disable
  4273                           ;	ZCD = OFF, Zero-cross detect circuit is disabled at POR
  4274                           ;	Phase Lock Loop enable
  4275                           ;	PLLEN = OFF, 4x PLL is enabled when software sets the SPLLEN bit
  4276                           ;	Stack Overflow/Underflow Reset Enable
  4277                           ;	STVREN = ON, Stack Overflow or Underflow will cause a Reset
  4278                           ;	Brown-out Reset Voltage Selection
  4279                           ;	BORV = LO, Brown-out Reset Voltage (Vbor), low trip point selected.
  4280                           ;	Low-Power Brown Out Reset
  4281                           ;	LPBOR = OFF, Low-Power BOR is disabled
  4282                           ;	Low-Voltage Programming Enable
  4283                           ;	LVP = OFF, High-voltage on MCLR/VPP must be used for programming
  4284     8008                     	org	32776
  4285     8008  1EFF               	dw	7935

Data Sizes:
    Strings     0
    Constant    0
    Data        0
    BSS         2
    Persistent  36
    Stack       0

Auto Spaces:
    Space          Size  Autos    Used
    COMMON           14      5      11
    BANK0            80      2       2
    BANK1            80      0       0
    BANK2            80      0       0
    BANK3            80      0       0
    BANK4            80      0       0
    BANK5            80      0       0
    BANK6            80      0       0
    BANK7            80      0       0
    BANK8            80      0       0
    BANK9            80      0       0
    BANK10           80      0       0
    BANK11           80      0       0
    BANK12           48      0       0
    BANK13           80      0       0
    BANK14           80      0       0
    BANK15           80      0       0
    BANK16           80      0       0
    BANK17           80      0       0
    BANK18           80      0       0
    BANK19           80      0       0
    BANK20           80      0       0
    BANK21           80      0       0
    BANK22           80      0       0
    BANK23           80      0       0
    BANK24           80      0       0
    BANK25           32      0       0

Pointer List with Targets:

    TMR1_SetInterruptHandler@InterruptHandler	PTR FTN()void  size(2) Largest target is 1
		 -> TMR1_DefaultInterruptHandler(), TMR1_interrupt(), 

    TMR1_InterruptHandler	PTR FTN()void  size(2) Largest target is 1
		 -> Absolute function(), TMR1_DefaultInterruptHandler(), TMR1_interrupt(), 


Critical Paths under _main in COMMON

    _main->_TMR1_SetInterruptHandler
    _TMR1_Initialize->_TMR1_SetInterruptHandler

Critical Paths under _INTERRUPT_InterruptManager in COMMON

    _TMR1_ISR->_TMR1_WriteTimer

Critical Paths under _main in BANK0

    None.

Critical Paths under _INTERRUPT_InterruptManager in BANK0

    None.

Critical Paths under _main in BANK1

    None.

Critical Paths under _INTERRUPT_InterruptManager in BANK1

    None.

Critical Paths under _main in BANK2

    None.

Critical Paths under _INTERRUPT_InterruptManager in BANK2

    None.

Critical Paths under _main in BANK3

    None.

Critical Paths under _INTERRUPT_InterruptManager in BANK3

    None.

Critical Paths under _main in BANK4

    None.

Critical Paths under _INTERRUPT_InterruptManager in BANK4

    None.

Critical Paths under _main in BANK5

    None.

Critical Paths under _INTERRUPT_InterruptManager in BANK5

    None.

Critical Paths under _main in BANK6

    None.

Critical Paths under _INTERRUPT_InterruptManager in BANK6

    None.

Critical Paths under _main in BANK7

    None.

Critical Paths under _INTERRUPT_InterruptManager in BANK7

    None.

Critical Paths under _main in BANK8

    None.

Critical Paths under _INTERRUPT_InterruptManager in BANK8

    None.

Critical Paths under _main in BANK9

    None.

Critical Paths under _INTERRUPT_InterruptManager in BANK9

    None.

Critical Paths under _main in BANK10

    None.

Critical Paths under _INTERRUPT_InterruptManager in BANK10

    None.

Critical Paths under _main in BANK11

    None.

Critical Paths under _INTERRUPT_InterruptManager in BANK11

    None.

Critical Paths under _main in BANK12

    None.

Critical Paths under _INTERRUPT_InterruptManager in BANK12

    None.

Critical Paths under _main in BANK13

    None.

Critical Paths under _INTERRUPT_InterruptManager in BANK13

    None.

Critical Paths under _main in BANK14

    None.

Critical Paths under _INTERRUPT_InterruptManager in BANK14

    None.

Critical Paths under _main in BANK15

    None.

Critical Paths under _INTERRUPT_InterruptManager in BANK15

    None.

Critical Paths under _main in BANK16

    None.

Critical Paths under _INTERRUPT_InterruptManager in BANK16

    None.

Critical Paths under _main in BANK17

    None.

Critical Paths under _INTERRUPT_InterruptManager in BANK17

    None.

Critical Paths under _main in BANK18

    None.

Critical Paths under _INTERRUPT_InterruptManager in BANK18

    None.

Critical Paths under _main in BANK19

    None.

Critical Paths under _INTERRUPT_InterruptManager in BANK19

    None.

Critical Paths under _main in BANK20

    None.

Critical Paths under _INTERRUPT_InterruptManager in BANK20

    None.

Critical Paths under _main in BANK21

    None.

Critical Paths under _INTERRUPT_InterruptManager in BANK21

    None.

Critical Paths under _main in BANK22

    None.

Critical Paths under _INTERRUPT_InterruptManager in BANK22

    None.

Critical Paths under _main in BANK23

    None.

Critical Paths under _INTERRUPT_InterruptManager in BANK23

    None.

Critical Paths under _main in BANK24

    None.

Critical Paths under _INTERRUPT_InterruptManager in BANK24

    None.

Critical Paths under _main in BANK25

    None.

Critical Paths under _INTERRUPT_InterruptManager in BANK25

    None.

Call Graph Tables:

 ---------------------------------------------------------------------------------
 (Depth) Function   	        Calls       Base Space   Used Autos Params    Refs
 ---------------------------------------------------------------------------------
 (0) _main                                                 3     3      0     493
                                              4 COMMON     1     1      0
                                              0 BANK0      2     2      0
                  _SYSTEM_Initialize
           _TMR1_SetInterruptHandler
                    _TMR1_StartTimer
                     _TMR1_StopTimer
 ---------------------------------------------------------------------------------
 (1) _TMR1_StopTimer                                       0     0      0       0
 ---------------------------------------------------------------------------------
 (1) _TMR1_StartTimer                                      0     0      0       0
 ---------------------------------------------------------------------------------
 (1) _SYSTEM_Initialize                                    0     0      0     211
              _OSCILLATOR_Initialize
             _PIN_MANAGER_Initialize
                    _TMR1_Initialize
                     _WDT_Initialize
 ---------------------------------------------------------------------------------
 (2) _WDT_Initialize                                       0     0      0       0
 ---------------------------------------------------------------------------------
 (2) _TMR1_Initialize                                      0     0      0     211
           _TMR1_SetInterruptHandler
 ---------------------------------------------------------------------------------
 (1) _TMR1_SetInterruptHandler                             2     0      2     211
                                              2 COMMON     2     0      2
 ---------------------------------------------------------------------------------
 (2) _PIN_MANAGER_Initialize                               0     0      0       0
 ---------------------------------------------------------------------------------
 (2) _OSCILLATOR_Initialize                                0     0      0       0
 ---------------------------------------------------------------------------------
 Estimated maximum stack depth 2
 ---------------------------------------------------------------------------------
 (Depth) Function   	        Calls       Base Space   Used Autos Params    Refs
 ---------------------------------------------------------------------------------
 (4) _INTERRUPT_InterruptManager                           0     0      0     240
                           _TMR1_ISR
 ---------------------------------------------------------------------------------
 (5) _TMR1_ISR                                             0     0      0     240
                      _TMR1_CallBack
                    _TMR1_WriteTimer
 ---------------------------------------------------------------------------------
 (6) _TMR1_WriteTimer                                      2     0      2     240
                                              0 COMMON     2     0      2
 ---------------------------------------------------------------------------------
 (6) _TMR1_CallBack                                        0     0      0       0
                   Absolute function *
       _TMR1_DefaultInterruptHandler *
                     _TMR1_interrupt *
 ---------------------------------------------------------------------------------
 (7) _TMR1_interrupt                                       0     0      0       0
 ---------------------------------------------------------------------------------
 (7) _TMR1_DefaultInterruptHandler                         0     0      0       0
 ---------------------------------------------------------------------------------
 (7) Absolute function(Fake)                               0     0      0       0
 ---------------------------------------------------------------------------------
 Estimated maximum stack depth 7
 ---------------------------------------------------------------------------------

 Call Graph Graphs:

 _main (ROOT)
   _SYSTEM_Initialize
     _OSCILLATOR_Initialize
     _PIN_MANAGER_Initialize
     _TMR1_Initialize
       _TMR1_SetInterruptHandler
     _WDT_Initialize
   _TMR1_SetInterruptHandler
   _TMR1_StartTimer
   _TMR1_StopTimer

 _INTERRUPT_InterruptManager (ROOT)
   _TMR1_ISR
     _TMR1_CallBack
       Absolute function(Fake) *
       _TMR1_DefaultInterruptHandler *
       _TMR1_interrupt *
     _TMR1_WriteTimer

 Address spaces:
Name               Size   Autos  Total    Cost      Usage
BIGRAM_1           3E0      0       0       0        0.0%
NULL                 0      0       0       0        0.0%
CODE                 0      0       0       0        0.0%
BIGRAM             3F0      0       0       1        0.0%
BITSFR0              0      0       0       1        0.0%
SFR0                 0      0       0       1        0.0%
BITCOMMON            E      0       0       2        0.0%
BITSFR1              0      0       0       2        0.0%
SFR1                 0      0       0       2        0.0%
COMMON               E      5       B       3       78.6%
BITSFR2              0      0       0       3        0.0%
SFR2                 0      0       0       3        0.0%
BITSFR3              0      0       0       4        0.0%
SFR3                 0      0       0       4        0.0%
STACK                0      0       0       4        0.0%
BANK0               50      2       2       5        2.5%
BITSFR4              0      0       0       5        0.0%
SFR4                 0      0       0       5        0.0%
BITBANK0            50      0       0       6        0.0%
BITSFR5              0      0       0       6        0.0%
SFR5                 0      0       0       6        0.0%
BITBANK1            50      0       0       7        0.0%
BITSFR6              0      0       0       7        0.0%
SFR6                 0      0       0       7        0.0%
BANK1               50      0       0       8        0.0%
BITSFR7              0      0       0       8        0.0%
SFR7                 0      0       0       8        0.0%
BITBANK2            50      0       0       9        0.0%
BITSFR8              0      0       0       9        0.0%
SFR8                 0      0       0       9        0.0%
BANK2               50      0       0      10        0.0%
BITSFR9              0      0       0      10        0.0%
SFR9                 0      0       0      10        0.0%
BITBANK3            50      0       0      11        0.0%
BITSFR10             0      0       0      11        0.0%
SFR10                0      0       0      11        0.0%
BANK3               50      0       0      12        0.0%
BITSFR11             0      0       0      12        0.0%
SFR11                0      0       0      12        0.0%
BITSFR12             0      0       0      13        0.0%
SFR12                0      0       0      13        0.0%
ABS                  0      0       D      13        0.0%
BITBANK4            50      0       0      14        0.0%
BITSFR13             0      0       0      14        0.0%
SFR13                0      0       0      14        0.0%
BANK4               50      0       0      15        0.0%
BITSFR14             0      0       0      15        0.0%
SFR14                0      0       0      15        0.0%
BITBANK5            50      0       0      16        0.0%
BITSFR15             0      0       0      16        0.0%
SFR15                0      0       0      16        0.0%
BANK5               50      0       0      17        0.0%
BITSFR16             0      0       0      17        0.0%
SFR16                0      0       0      17        0.0%
BITBANK6            50      0       0      18        0.0%
BITSFR17             0      0       0      18        0.0%
SFR17                0      0       0      18        0.0%
BANK6               50      0       0      19        0.0%
BITSFR18             0      0       0      19        0.0%
SFR18                0      0       0      19        0.0%
BITBANK7            50      0       0      20        0.0%
BITSFR19             0      0       0      20        0.0%
SFR19                0      0       0      20        0.0%
BANK7               50      0       0      21        0.0%
BITSFR20             0      0       0      21        0.0%
SFR20                0      0       0      21        0.0%
BITBANK8            50      0       0      22        0.0%
BITSFR21             0      0       0      22        0.0%
SFR21                0      0       0      22        0.0%
BANK8               50      0       0      23        0.0%
BITSFR22             0      0       0      23        0.0%
SFR22                0      0       0      23        0.0%
BITBANK9            50      0       0      24        0.0%
BITSFR23             0      0       0      24        0.0%
SFR23                0      0       0      24        0.0%
BANK9               50      0       0      25        0.0%
BITSFR24             0      0       0      25        0.0%
SFR24                0      0       0      25        0.0%
BITBANK10           50      0       0      26        0.0%
BITSFR25             0      0       0      26        0.0%
SFR25                0      0       0      26        0.0%
BANK10              50      0       0      27        0.0%
BITSFR26             0      0       0      27        0.0%
SFR26                0      0       0      27        0.0%
BITBANK11           50      0       0      28        0.0%
BITSFR27             0      0       0      28        0.0%
SFR27                0      0       0      28        0.0%
BANK11              50      0       0      29        0.0%
BITSFR28             0      0       0      29        0.0%
SFR28                0      0       0      29        0.0%
BITSFR29             0      0       0      30        0.0%
SFR29                0      0       0      30        0.0%
DATA                 0      0       D      30        0.0%
BITBANK12           30      0       0      31        0.0%
BITSFR30             0      0       0      31        0.0%
SFR30                0      0       0      31        0.0%
BANK12              30      0       0      32        0.0%
BITSFR31             0      0       0      32        0.0%
SFR31                0      0       0      32        0.0%
BITBANK13           50      0       0      33        0.0%
BANK13              50      0       0      34        0.0%
BITBANK14           50      0       0      35        0.0%
BANK14              50      0       0      36        0.0%
BITBANK15           50      0       0      37        0.0%
BANK15              50      0       0      38        0.0%
BITBANK16           50      0       0      39        0.0%
BANK16              50      0       0      40        0.0%
BITBANK17           50      0       0      41        0.0%
BANK17              50      0       0      42        0.0%
BITBANK18           50      0       0      43        0.0%
BANK18              50      0       0      44        0.0%
BITBANK19           50      0       0      45        0.0%
BANK19              50      0       0      46        0.0%
BITBANK20           50      0       0      47        0.0%
BANK20              50      0       0      48        0.0%
BITBANK21           50      0       0      49        0.0%
BANK21              50      0       0      50        0.0%
BITBANK22           50      0       0      51        0.0%
BANK22              50      0       0      52        0.0%
BITBANK23           50      0       0      53        0.0%
BANK23              50      0       0      54        0.0%
BITBANK24           50      0       0      55        0.0%
BANK24              50      0       0      56        0.0%
BITBANK25           20      0       0      57        0.0%
BANK25              20      0       0      58        0.0%


Microchip Technology PIC Macro Assembler V2.40 build 20220703182018 
Symbol Table                                                                                   Mon Aug 15 22:01:41 2022

                                      l31 006C                                        l27 0047  
                                      l62 0101                                        l65 0122  
                                      l68 012B                          ??_TMR1_interrupt 0070  
                                     l204 0127                                       l136 00AF  
                                     l171 0131                                       l174 012E  
                                     l168 00E3                                       l991 0085  
                                     l993 0088                                       l995 008A  
                                     l987 0123                                       l997 008C  
                                     l989 0081                                       l999 008E  
                                     u300 0065                                       u301 0064  
                                     u310 0071                                       u311 0070  
                                     u260 003A                                       u261 0039  
                                     u270 0040                                       u327 0043  
                                     u271 003F                                       u280 004C  
                                     u337 004F                                       u281 004B  
                                     u290 0061                                       u347 0068  
                                     u291 0060                                       u357 0074  
                         _timer1ReloadVal 0077                                       wreg 0009  
                                    l1001 0091                                      l1011 009B  
                                    l1003 0093                                      l1021 00A4  
                                    l1013 009D                                      l1005 0095  
                                    l1031 011B                                      l1023 00A6  
                                    l1015 009F                                      l1007 0097  
                                    l1033 0120                                      l1025 00A8  
                                    l1017 00A0                                      l1009 0098  
                                    l1041 00CE                                      l1035 0121  
                                    l1027 00AB                                      l1019 00A1  
                                    l1051 00D9                                      l1043 00D0  
                                    l1029 00AD                                      l1053 00E0  
                                    l1045 00D2                                      l1037 0128  
                                    l1061 0021                                      l1047 00D3  
                                    l1039 00CC                                      l1055 00F5  
                                    l1071 002B                                      l1063 0024  
                                    l1049 00D7                                      l1057 012C  
                                    l1081 004C                                      l1073 002E  
                                    l1065 0027                                      l1059 012F  
                                    l1091 0065                                      l1083 0053  
                                    l1075 0035                                      l1067 0028  
                                    l1093 0071                                      l1085 0056  
                                    l1077 003A                                      l1069 0029  
                                    l1095 0078                                      l1079 0040  
                                    l1087 005B                                      l1097 007B  
                                    l1089 0061                                      _LATA 010C  
                                    _LATB 010D                                      _LATC 010E  
                                    i1l41 010E                                      i1l39 0102  
                                    i1l85 0017                                      _WPUA 020C  
                                    _WPUB 020D                                      _WPUC 020E  
                                    _WPUE 0210                                      u1_20 010C  
                                    u1_21 0109                                      u2_24 010E  
                                    u4_20 0115                                      u4_21 0114  
                                    _main 0021                                      btemp 007E  
                                    start 0019                ??_TMR1_SetInterruptHandler 0074  
           __end_of_OSCILLATOR_Initialize 0123                                     ?_main 0070  
                         _TMR1_StartTimer 012F                                     _T1CON 001A  
                                   i1l201 011A                                     i1l207 0132  
                                   i1l182 00F4                                     i1l197 00CB  
                                   i1l735 0102                                     i1l817 010F  
                                   i1l921 00EE                                     i1l913 00E4  
                                   i1l819 0115                                     i1l915 00E9  
                                   i1l923 00F0                                     i1l931 00B2  
                                   i1l925 00F2                                     i1l917 00EA  
                                   i1l933 00B9                                     i1l919 00EC  
                                   i1l935 00C6                                     i1l937 00C9  
                                   i1l929 00B0                                     i1l981 000F  
                                   i1l983 0014                                     i1l977 0006  
                                   i1l979 000A                                     u15_20 00E9  
                                   u23_20 000A                                     u15_21 00E8  
                                   u23_21 0009                                     u16_20 00C6  
                                   u24_20 000F                                     u16_21 00C5  
                                   u24_21 000E                                     u25_20 0014  
                                   u25_21 0013                                     _TMR1H 0019  
                                   _TMR1L 0018                                     _TRISA 008C  
                                   _TRISB 008D                                     _TRISC 008E  
                                   _TRISE 0090                          __end_of_TMR1_ISR 00CC  
                          _WDT_Initialize 0128                   __end_of_TMR1_Initialize 00E4  
                                   pclath 000A                                     status 0003  
                                   wtemp0 007E                           _TMR1_WriteTimer 00E4  
                         __initialization 001B                              __end_of_main 0081  
             ?_INTERRUPT_InterruptManager 0070                                    ??_main 0074  
                  __end_of_WDT_Initialize 012C                                    _ANSELA 018C  
                                  _ANSELB 018D                                    _ANSELC 018E  
                                  _BORCON 009D                                    _T1GCON 001B  
                 TMR1_WriteTimer@timerVal 0070                                    _ODCONA 028C  
                                  _ODCONB 028D                                    _ODCONC 028E  
                                  _INLVLA 038C                                    _INLVLB 038D  
                                  _INLVLC 038E                                    _OSCCON 009B  
                                  _WDTCON 0099      __end_of_TMR1_DefaultInterruptHandler 0133  
            _TMR1_DefaultInterruptHandler 0132                   __end_of_TMR1_StartTimer 0132  
                         ?_WDT_Initialize 0070  TMR1_SetInterruptHandler@InterruptHandler 0072  
                 __end_of_TMR1_WriteTimer 00F5                     __end_of_TMR1_CallBack 011B  
                        ?_TMR1_Initialize 0070                         _SYSTEM_Initialize 00F5  
                 __end_of__initialization 001D                        ?_SYSTEM_Initialize 0070  
                          __pcstackCOMMON 0070                       ??_SYSTEM_Initialize 0074  
                               ?_TMR1_ISR 0070             ?_TMR1_DefaultInterruptHandler 0070  
                          _OPTION_REGbits 0097                 __end_of_SYSTEM_Initialize 0102  
                              __pnvCOMMON 0075                                __pmaintext 0021  
                        ?_TMR1_StartTimer 0070                                ??_TMR1_ISR 0072  
                              __pintentry 0004                                   _OSCSTAT 009C  
                                 _OSCTUNE 009A                                   _SLRCONA 030C  
                                 _SLRCONB 030D                                   _SLRCONC 030E  
                        ?_TMR1_WriteTimer 0070                                   __ptext1 012C  
                                 __ptext2 012F                                   __ptext3 00F5  
                                 __ptext4 0128                                   __ptext5 00CC  
                                 __ptext6 0123                                   __ptext7 0081  
                                 __ptext8 011B            ??_TMR1_DefaultInterruptHandler 0070  
                               _T1CONbits 001A                     _OSCILLATOR_Initialize 011B  
                ??_PIN_MANAGER_Initialize 0072                 ?_TMR1_SetInterruptHandler 0072  
                    end_of_initialization 001D                          ??_WDT_Initialize 0072  
                               _PORTCbits 000E                            _TMR1_StopTimer 012C  
                  ?_OSCILLATOR_Initialize 0070                       start_initialization 001B  
                  __end_of_TMR1_StopTimer 012F                     TMR1_ISR@CountCallBack 0079  
                             __pbssCOMMON 0079                                 ___latbits 0003  
                           __pcstackBANK0 0020                            _TMR1_interrupt 0102  
                  _PIN_MANAGER_Initialize 0081          __end_of_TMR1_SetInterruptHandler 0128  
                         ?_TMR1_StopTimer 0070              ??_INTERRUPT_InterruptManager 0072  
                  __end_of_TMR1_interrupt 010F                             _TMR1_CallBack 010F  
                                _LATBbits 010D                                  _PIE1bits 0091  
                                _PIR1bits 0011                                  _TMR1_ISR 00B0  
                       ??_TMR1_Initialize 0074                           ?_TMR1_interrupt 0070  
                          ?_TMR1_CallBack 0070                   ??_OSCILLATOR_Initialize 0072  
                _TMR1_SetInterruptHandler 0123                     _TMR1_InterruptHandler 0075  
                                __ptext10 00B0                                  __ptext11 00E4  
                                __ptext12 010F                                  __ptext13 0132  
                              _T1GCONbits 001B                                  __ptext14 0102  
                       ??_TMR1_StartTimer 0072                                  int$flags 007E  
      __end_of_INTERRUPT_InterruptManager 0019                _INTERRUPT_InterruptManager 0004  
                                main@frag 0020                         ??_TMR1_WriteTimer 0072  
                              _INTCONbits 000B                           ??_TMR1_CallBack 0070  
                                intlevel1 0000                   ?_PIN_MANAGER_Initialize 0070  
                        ??_TMR1_StopTimer 0072            __end_of_PIN_MANAGER_Initialize 00B0  
                         _TMR1_Initialize 00CC  
